ctarget:     file format elf64-x86-64


Disassembly of section .init:

0000000000400c48 <_init>:
  400c48:	48 83 ec 08          	sub    $0x8,%rsp
  400c4c:	48 8b 05 a5 43 20 00 	mov    0x2043a5(%rip),%rax        # 604ff8 <_DYNAMIC+0x1d0>
  400c53:	48 85 c0             	test   %rax,%rax
  400c56:	74 05                	je     400c5d <_init+0x15>
  400c58:	e8 43 02 00 00       	callq  400ea0 <socket@plt+0x10>
  400c5d:	48 83 c4 08          	add    $0x8,%rsp
  400c61:	c3                   	retq   

Disassembly of section .plt:

0000000000400c70 <strcasecmp@plt-0x10>:
  400c70:	ff 35 92 43 20 00    	pushq  0x204392(%rip)        # 605008 <_GLOBAL_OFFSET_TABLE_+0x8>
  400c76:	ff 25 94 43 20 00    	jmpq   *0x204394(%rip)        # 605010 <_GLOBAL_OFFSET_TABLE_+0x10>
  400c7c:	0f 1f 40 00          	nopl   0x0(%rax)

0000000000400c80 <strcasecmp@plt>:
  400c80:	ff 25 92 43 20 00    	jmpq   *0x204392(%rip)        # 605018 <_GLOBAL_OFFSET_TABLE_+0x18>
  400c86:	68 00 00 00 00       	pushq  $0x0
  400c8b:	e9 e0 ff ff ff       	jmpq   400c70 <_init+0x28>

0000000000400c90 <__errno_location@plt>:
  400c90:	ff 25 8a 43 20 00    	jmpq   *0x20438a(%rip)        # 605020 <_GLOBAL_OFFSET_TABLE_+0x20>
  400c96:	68 01 00 00 00       	pushq  $0x1
  400c9b:	e9 d0 ff ff ff       	jmpq   400c70 <_init+0x28>

0000000000400ca0 <srandom@plt>:
  400ca0:	ff 25 82 43 20 00    	jmpq   *0x204382(%rip)        # 605028 <_GLOBAL_OFFSET_TABLE_+0x28>
  400ca6:	68 02 00 00 00       	pushq  $0x2
  400cab:	e9 c0 ff ff ff       	jmpq   400c70 <_init+0x28>

0000000000400cb0 <strncmp@plt>:
  400cb0:	ff 25 7a 43 20 00    	jmpq   *0x20437a(%rip)        # 605030 <_GLOBAL_OFFSET_TABLE_+0x30>
  400cb6:	68 03 00 00 00       	pushq  $0x3
  400cbb:	e9 b0 ff ff ff       	jmpq   400c70 <_init+0x28>

0000000000400cc0 <strcpy@plt>:
  400cc0:	ff 25 72 43 20 00    	jmpq   *0x204372(%rip)        # 605038 <_GLOBAL_OFFSET_TABLE_+0x38>
  400cc6:	68 04 00 00 00       	pushq  $0x4
  400ccb:	e9 a0 ff ff ff       	jmpq   400c70 <_init+0x28>

0000000000400cd0 <puts@plt>:
  400cd0:	ff 25 6a 43 20 00    	jmpq   *0x20436a(%rip)        # 605040 <_GLOBAL_OFFSET_TABLE_+0x40>
  400cd6:	68 05 00 00 00       	pushq  $0x5
  400cdb:	e9 90 ff ff ff       	jmpq   400c70 <_init+0x28>

0000000000400ce0 <write@plt>:
  400ce0:	ff 25 62 43 20 00    	jmpq   *0x204362(%rip)        # 605048 <_GLOBAL_OFFSET_TABLE_+0x48>
  400ce6:	68 06 00 00 00       	pushq  $0x6
  400ceb:	e9 80 ff ff ff       	jmpq   400c70 <_init+0x28>

0000000000400cf0 <__stack_chk_fail@plt>:
  400cf0:	ff 25 5a 43 20 00    	jmpq   *0x20435a(%rip)        # 605050 <_GLOBAL_OFFSET_TABLE_+0x50>
  400cf6:	68 07 00 00 00       	pushq  $0x7
  400cfb:	e9 70 ff ff ff       	jmpq   400c70 <_init+0x28>

0000000000400d00 <mmap@plt>:
  400d00:	ff 25 52 43 20 00    	jmpq   *0x204352(%rip)        # 605058 <_GLOBAL_OFFSET_TABLE_+0x58>
  400d06:	68 08 00 00 00       	pushq  $0x8
  400d0b:	e9 60 ff ff ff       	jmpq   400c70 <_init+0x28>

0000000000400d10 <memset@plt>:
  400d10:	ff 25 4a 43 20 00    	jmpq   *0x20434a(%rip)        # 605060 <_GLOBAL_OFFSET_TABLE_+0x60>
  400d16:	68 09 00 00 00       	pushq  $0x9
  400d1b:	e9 50 ff ff ff       	jmpq   400c70 <_init+0x28>

0000000000400d20 <alarm@plt>:
  400d20:	ff 25 42 43 20 00    	jmpq   *0x204342(%rip)        # 605068 <_GLOBAL_OFFSET_TABLE_+0x68>
  400d26:	68 0a 00 00 00       	pushq  $0xa
  400d2b:	e9 40 ff ff ff       	jmpq   400c70 <_init+0x28>

0000000000400d30 <close@plt>:
  400d30:	ff 25 3a 43 20 00    	jmpq   *0x20433a(%rip)        # 605070 <_GLOBAL_OFFSET_TABLE_+0x70>
  400d36:	68 0b 00 00 00       	pushq  $0xb
  400d3b:	e9 30 ff ff ff       	jmpq   400c70 <_init+0x28>

0000000000400d40 <read@plt>:
  400d40:	ff 25 32 43 20 00    	jmpq   *0x204332(%rip)        # 605078 <_GLOBAL_OFFSET_TABLE_+0x78>
  400d46:	68 0c 00 00 00       	pushq  $0xc
  400d4b:	e9 20 ff ff ff       	jmpq   400c70 <_init+0x28>

0000000000400d50 <__libc_start_main@plt>:
  400d50:	ff 25 2a 43 20 00    	jmpq   *0x20432a(%rip)        # 605080 <_GLOBAL_OFFSET_TABLE_+0x80>
  400d56:	68 0d 00 00 00       	pushq  $0xd
  400d5b:	e9 10 ff ff ff       	jmpq   400c70 <_init+0x28>

0000000000400d60 <signal@plt>:
  400d60:	ff 25 22 43 20 00    	jmpq   *0x204322(%rip)        # 605088 <_GLOBAL_OFFSET_TABLE_+0x88>
  400d66:	68 0e 00 00 00       	pushq  $0xe
  400d6b:	e9 00 ff ff ff       	jmpq   400c70 <_init+0x28>

0000000000400d70 <gethostbyname@plt>:
  400d70:	ff 25 1a 43 20 00    	jmpq   *0x20431a(%rip)        # 605090 <_GLOBAL_OFFSET_TABLE_+0x90>
  400d76:	68 0f 00 00 00       	pushq  $0xf
  400d7b:	e9 f0 fe ff ff       	jmpq   400c70 <_init+0x28>

0000000000400d80 <__memmove_chk@plt>:
  400d80:	ff 25 12 43 20 00    	jmpq   *0x204312(%rip)        # 605098 <_GLOBAL_OFFSET_TABLE_+0x98>
  400d86:	68 10 00 00 00       	pushq  $0x10
  400d8b:	e9 e0 fe ff ff       	jmpq   400c70 <_init+0x28>

0000000000400d90 <strtol@plt>:
  400d90:	ff 25 0a 43 20 00    	jmpq   *0x20430a(%rip)        # 6050a0 <_GLOBAL_OFFSET_TABLE_+0xa0>
  400d96:	68 11 00 00 00       	pushq  $0x11
  400d9b:	e9 d0 fe ff ff       	jmpq   400c70 <_init+0x28>

0000000000400da0 <memcpy@plt>:
  400da0:	ff 25 02 43 20 00    	jmpq   *0x204302(%rip)        # 6050a8 <_GLOBAL_OFFSET_TABLE_+0xa8>
  400da6:	68 12 00 00 00       	pushq  $0x12
  400dab:	e9 c0 fe ff ff       	jmpq   400c70 <_init+0x28>

0000000000400db0 <time@plt>:
  400db0:	ff 25 fa 42 20 00    	jmpq   *0x2042fa(%rip)        # 6050b0 <_GLOBAL_OFFSET_TABLE_+0xb0>
  400db6:	68 13 00 00 00       	pushq  $0x13
  400dbb:	e9 b0 fe ff ff       	jmpq   400c70 <_init+0x28>

0000000000400dc0 <random@plt>:
  400dc0:	ff 25 f2 42 20 00    	jmpq   *0x2042f2(%rip)        # 6050b8 <_GLOBAL_OFFSET_TABLE_+0xb8>
  400dc6:	68 14 00 00 00       	pushq  $0x14
  400dcb:	e9 a0 fe ff ff       	jmpq   400c70 <_init+0x28>

0000000000400dd0 <_IO_getc@plt>:
  400dd0:	ff 25 ea 42 20 00    	jmpq   *0x2042ea(%rip)        # 6050c0 <_GLOBAL_OFFSET_TABLE_+0xc0>
  400dd6:	68 15 00 00 00       	pushq  $0x15
  400ddb:	e9 90 fe ff ff       	jmpq   400c70 <_init+0x28>

0000000000400de0 <__isoc99_sscanf@plt>:
  400de0:	ff 25 e2 42 20 00    	jmpq   *0x2042e2(%rip)        # 6050c8 <_GLOBAL_OFFSET_TABLE_+0xc8>
  400de6:	68 16 00 00 00       	pushq  $0x16
  400deb:	e9 80 fe ff ff       	jmpq   400c70 <_init+0x28>

0000000000400df0 <munmap@plt>:
  400df0:	ff 25 da 42 20 00    	jmpq   *0x2042da(%rip)        # 6050d0 <_GLOBAL_OFFSET_TABLE_+0xd0>
  400df6:	68 17 00 00 00       	pushq  $0x17
  400dfb:	e9 70 fe ff ff       	jmpq   400c70 <_init+0x28>

0000000000400e00 <__printf_chk@plt>:
  400e00:	ff 25 d2 42 20 00    	jmpq   *0x2042d2(%rip)        # 6050d8 <_GLOBAL_OFFSET_TABLE_+0xd8>
  400e06:	68 18 00 00 00       	pushq  $0x18
  400e0b:	e9 60 fe ff ff       	jmpq   400c70 <_init+0x28>

0000000000400e10 <fopen@plt>:
  400e10:	ff 25 ca 42 20 00    	jmpq   *0x2042ca(%rip)        # 6050e0 <_GLOBAL_OFFSET_TABLE_+0xe0>
  400e16:	68 19 00 00 00       	pushq  $0x19
  400e1b:	e9 50 fe ff ff       	jmpq   400c70 <_init+0x28>

0000000000400e20 <getopt@plt>:
  400e20:	ff 25 c2 42 20 00    	jmpq   *0x2042c2(%rip)        # 6050e8 <_GLOBAL_OFFSET_TABLE_+0xe8>
  400e26:	68 1a 00 00 00       	pushq  $0x1a
  400e2b:	e9 40 fe ff ff       	jmpq   400c70 <_init+0x28>

0000000000400e30 <strtoul@plt>:
  400e30:	ff 25 ba 42 20 00    	jmpq   *0x2042ba(%rip)        # 6050f0 <_GLOBAL_OFFSET_TABLE_+0xf0>
  400e36:	68 1b 00 00 00       	pushq  $0x1b
  400e3b:	e9 30 fe ff ff       	jmpq   400c70 <_init+0x28>

0000000000400e40 <gethostname@plt>:
  400e40:	ff 25 b2 42 20 00    	jmpq   *0x2042b2(%rip)        # 6050f8 <_GLOBAL_OFFSET_TABLE_+0xf8>
  400e46:	68 1c 00 00 00       	pushq  $0x1c
  400e4b:	e9 20 fe ff ff       	jmpq   400c70 <_init+0x28>

0000000000400e50 <exit@plt>:
  400e50:	ff 25 aa 42 20 00    	jmpq   *0x2042aa(%rip)        # 605100 <_GLOBAL_OFFSET_TABLE_+0x100>
  400e56:	68 1d 00 00 00       	pushq  $0x1d
  400e5b:	e9 10 fe ff ff       	jmpq   400c70 <_init+0x28>

0000000000400e60 <connect@plt>:
  400e60:	ff 25 a2 42 20 00    	jmpq   *0x2042a2(%rip)        # 605108 <_GLOBAL_OFFSET_TABLE_+0x108>
  400e66:	68 1e 00 00 00       	pushq  $0x1e
  400e6b:	e9 00 fe ff ff       	jmpq   400c70 <_init+0x28>

0000000000400e70 <__fprintf_chk@plt>:
  400e70:	ff 25 9a 42 20 00    	jmpq   *0x20429a(%rip)        # 605110 <_GLOBAL_OFFSET_TABLE_+0x110>
  400e76:	68 1f 00 00 00       	pushq  $0x1f
  400e7b:	e9 f0 fd ff ff       	jmpq   400c70 <_init+0x28>

0000000000400e80 <__sprintf_chk@plt>:
  400e80:	ff 25 92 42 20 00    	jmpq   *0x204292(%rip)        # 605118 <_GLOBAL_OFFSET_TABLE_+0x118>
  400e86:	68 20 00 00 00       	pushq  $0x20
  400e8b:	e9 e0 fd ff ff       	jmpq   400c70 <_init+0x28>

0000000000400e90 <socket@plt>:
  400e90:	ff 25 8a 42 20 00    	jmpq   *0x20428a(%rip)        # 605120 <_GLOBAL_OFFSET_TABLE_+0x120>
  400e96:	68 21 00 00 00       	pushq  $0x21
  400e9b:	e9 d0 fd ff ff       	jmpq   400c70 <_init+0x28>

Disassembly of section .plt.got:

0000000000400ea0 <.plt.got>:
  400ea0:	ff 25 52 41 20 00    	jmpq   *0x204152(%rip)        # 604ff8 <_DYNAMIC+0x1d0>
  400ea6:	66 90                	xchg   %ax,%ax

Disassembly of section .text:

0000000000400eb0 <_start>:
  400eb0:	31 ed                	xor    %ebp,%ebp
  400eb2:	49 89 d1             	mov    %rdx,%r9
  400eb5:	5e                   	pop    %rsi
  400eb6:	48 89 e2             	mov    %rsp,%rdx
  400eb9:	48 83 e4 f0          	and    $0xfffffffffffffff0,%rsp
  400ebd:	50                   	push   %rax
  400ebe:	54                   	push   %rsp
  400ebf:	49 c7 c0 e0 2e 40 00 	mov    $0x402ee0,%r8
  400ec6:	48 c7 c1 70 2e 40 00 	mov    $0x402e70,%rcx
  400ecd:	48 c7 c7 b5 11 40 00 	mov    $0x4011b5,%rdi
  400ed4:	e8 77 fe ff ff       	callq  400d50 <__libc_start_main@plt>
  400ed9:	f4                   	hlt    
  400eda:	66 0f 1f 44 00 00    	nopw   0x0(%rax,%rax,1)

0000000000400ee0 <deregister_tm_clones>:
  400ee0:	b8 b7 54 60 00       	mov    $0x6054b7,%eax
  400ee5:	55                   	push   %rbp
  400ee6:	48 2d b0 54 60 00    	sub    $0x6054b0,%rax
  400eec:	48 83 f8 0e          	cmp    $0xe,%rax
  400ef0:	48 89 e5             	mov    %rsp,%rbp
  400ef3:	76 1b                	jbe    400f10 <deregister_tm_clones+0x30>
  400ef5:	b8 00 00 00 00       	mov    $0x0,%eax
  400efa:	48 85 c0             	test   %rax,%rax
  400efd:	74 11                	je     400f10 <deregister_tm_clones+0x30>
  400eff:	5d                   	pop    %rbp
  400f00:	bf b0 54 60 00       	mov    $0x6054b0,%edi
  400f05:	ff e0                	jmpq   *%rax
  400f07:	66 0f 1f 84 00 00 00 	nopw   0x0(%rax,%rax,1)
  400f0e:	00 00 
  400f10:	5d                   	pop    %rbp
  400f11:	c3                   	retq   
  400f12:	0f 1f 40 00          	nopl   0x0(%rax)
  400f16:	66 2e 0f 1f 84 00 00 	nopw   %cs:0x0(%rax,%rax,1)
  400f1d:	00 00 00 

0000000000400f20 <register_tm_clones>:
  400f20:	be b0 54 60 00       	mov    $0x6054b0,%esi
  400f25:	55                   	push   %rbp
  400f26:	48 81 ee b0 54 60 00 	sub    $0x6054b0,%rsi
  400f2d:	48 c1 fe 03          	sar    $0x3,%rsi
  400f31:	48 89 e5             	mov    %rsp,%rbp
  400f34:	48 89 f0             	mov    %rsi,%rax
  400f37:	48 c1 e8 3f          	shr    $0x3f,%rax
  400f3b:	48 01 c6             	add    %rax,%rsi
  400f3e:	48 d1 fe             	sar    %rsi
  400f41:	74 15                	je     400f58 <register_tm_clones+0x38>
  400f43:	b8 00 00 00 00       	mov    $0x0,%eax
  400f48:	48 85 c0             	test   %rax,%rax
  400f4b:	74 0b                	je     400f58 <register_tm_clones+0x38>
  400f4d:	5d                   	pop    %rbp
  400f4e:	bf b0 54 60 00       	mov    $0x6054b0,%edi
  400f53:	ff e0                	jmpq   *%rax
  400f55:	0f 1f 00             	nopl   (%rax)
  400f58:	5d                   	pop    %rbp
  400f59:	c3                   	retq   
  400f5a:	66 0f 1f 44 00 00    	nopw   0x0(%rax,%rax,1)

0000000000400f60 <__do_global_dtors_aux>:
  400f60:	80 3d 81 45 20 00 00 	cmpb   $0x0,0x204581(%rip)        # 6054e8 <completed.7585>
  400f67:	75 11                	jne    400f7a <__do_global_dtors_aux+0x1a>
  400f69:	55                   	push   %rbp
  400f6a:	48 89 e5             	mov    %rsp,%rbp
  400f6d:	e8 6e ff ff ff       	callq  400ee0 <deregister_tm_clones>
  400f72:	5d                   	pop    %rbp
  400f73:	c6 05 6e 45 20 00 01 	movb   $0x1,0x20456e(%rip)        # 6054e8 <completed.7585>
  400f7a:	f3 c3                	repz retq 
  400f7c:	0f 1f 40 00          	nopl   0x0(%rax)

0000000000400f80 <frame_dummy>:
  400f80:	bf 20 4e 60 00       	mov    $0x604e20,%edi
  400f85:	48 83 3f 00          	cmpq   $0x0,(%rdi)
  400f89:	75 05                	jne    400f90 <frame_dummy+0x10>
  400f8b:	eb 93                	jmp    400f20 <register_tm_clones>
  400f8d:	0f 1f 00             	nopl   (%rax)
  400f90:	b8 00 00 00 00       	mov    $0x0,%eax
  400f95:	48 85 c0             	test   %rax,%rax
  400f98:	74 f1                	je     400f8b <frame_dummy+0xb>
  400f9a:	55                   	push   %rbp
  400f9b:	48 89 e5             	mov    %rsp,%rbp
  400f9e:	ff d0                	callq  *%rax
  400fa0:	5d                   	pop    %rbp
  400fa1:	e9 7a ff ff ff       	jmpq   400f20 <register_tm_clones>

0000000000400fa6 <usage>:
  400fa6:	48 83 ec 08          	sub    $0x8,%rsp
  400faa:	48 89 fa             	mov    %rdi,%rdx
  400fad:	83 3d 74 45 20 00 00 	cmpl   $0x0,0x204574(%rip)        # 605528 <is_checker>
  400fb4:	74 3e                	je     400ff4 <usage+0x4e>
  400fb6:	be f8 2e 40 00       	mov    $0x402ef8,%esi
  400fbb:	bf 01 00 00 00       	mov    $0x1,%edi
  400fc0:	b8 00 00 00 00       	mov    $0x0,%eax
  400fc5:	e8 36 fe ff ff       	callq  400e00 <__printf_chk@plt>
  400fca:	bf 30 2f 40 00       	mov    $0x402f30,%edi
  400fcf:	e8 fc fc ff ff       	callq  400cd0 <puts@plt>
  400fd4:	bf a8 30 40 00       	mov    $0x4030a8,%edi
  400fd9:	e8 f2 fc ff ff       	callq  400cd0 <puts@plt>
  400fde:	bf 58 2f 40 00       	mov    $0x402f58,%edi
  400fe3:	e8 e8 fc ff ff       	callq  400cd0 <puts@plt>
  400fe8:	bf c2 30 40 00       	mov    $0x4030c2,%edi
  400fed:	e8 de fc ff ff       	callq  400cd0 <puts@plt>
  400ff2:	eb 32                	jmp    401026 <usage+0x80>
  400ff4:	be de 30 40 00       	mov    $0x4030de,%esi
  400ff9:	bf 01 00 00 00       	mov    $0x1,%edi
  400ffe:	b8 00 00 00 00       	mov    $0x0,%eax
  401003:	e8 f8 fd ff ff       	callq  400e00 <__printf_chk@plt>
  401008:	bf 80 2f 40 00       	mov    $0x402f80,%edi
  40100d:	e8 be fc ff ff       	callq  400cd0 <puts@plt>
  401012:	bf a8 2f 40 00       	mov    $0x402fa8,%edi
  401017:	e8 b4 fc ff ff       	callq  400cd0 <puts@plt>
  40101c:	bf fc 30 40 00       	mov    $0x4030fc,%edi
  401021:	e8 aa fc ff ff       	callq  400cd0 <puts@plt>
  401026:	bf 00 00 00 00       	mov    $0x0,%edi
  40102b:	e8 20 fe ff ff       	callq  400e50 <exit@plt>

0000000000401030 <initialize_target>:
  401030:	55                   	push   %rbp
  401031:	53                   	push   %rbx
  401032:	48 81 ec 18 21 00 00 	sub    $0x2118,%rsp
  401039:	89 f5                	mov    %esi,%ebp
  40103b:	64 48 8b 04 25 28 00 	mov    %fs:0x28,%rax
  401042:	00 00 
  401044:	48 89 84 24 08 21 00 	mov    %rax,0x2108(%rsp)
  40104b:	00 
  40104c:	31 c0                	xor    %eax,%eax
  40104e:	89 3d c4 44 20 00    	mov    %edi,0x2044c4(%rip)        # 605518 <check_level>
  401054:	8b 3d 0e 41 20 00    	mov    0x20410e(%rip),%edi        # 605168 <target_id>
  40105a:	e8 e7 1d 00 00       	callq  402e46 <gencookie>
  40105f:	89 05 bf 44 20 00    	mov    %eax,0x2044bf(%rip)        # 605524 <cookie>
  401065:	89 c7                	mov    %eax,%edi
  401067:	e8 da 1d 00 00       	callq  402e46 <gencookie>
  40106c:	89 05 ae 44 20 00    	mov    %eax,0x2044ae(%rip)        # 605520 <authkey>
  401072:	8b 05 f0 40 20 00    	mov    0x2040f0(%rip),%eax        # 605168 <target_id>
  401078:	8d 78 01             	lea    0x1(%rax),%edi
  40107b:	e8 20 fc ff ff       	callq  400ca0 <srandom@plt>
  401080:	e8 3b fd ff ff       	callq  400dc0 <random@plt>
  401085:	89 c7                	mov    %eax,%edi
  401087:	e8 03 03 00 00       	callq  40138f <scramble>
  40108c:	89 c3                	mov    %eax,%ebx
  40108e:	85 ed                	test   %ebp,%ebp
  401090:	74 18                	je     4010aa <initialize_target+0x7a>
  401092:	bf 00 00 00 00       	mov    $0x0,%edi
  401097:	e8 14 fd ff ff       	callq  400db0 <time@plt>
  40109c:	89 c7                	mov    %eax,%edi
  40109e:	e8 fd fb ff ff       	callq  400ca0 <srandom@plt>
  4010a3:	e8 18 fd ff ff       	callq  400dc0 <random@plt>
  4010a8:	eb 05                	jmp    4010af <initialize_target+0x7f>
  4010aa:	b8 00 00 00 00       	mov    $0x0,%eax
  4010af:	01 c3                	add    %eax,%ebx
  4010b1:	0f b7 db             	movzwl %bx,%ebx
  4010b4:	8d 04 dd 00 01 00 00 	lea    0x100(,%rbx,8),%eax
  4010bb:	89 c0                	mov    %eax,%eax
  4010bd:	48 89 05 dc 43 20 00 	mov    %rax,0x2043dc(%rip)        # 6054a0 <buf_offset>
  4010c4:	c6 05 7d 50 20 00 63 	movb   $0x63,0x20507d(%rip)        # 606148 <target_prefix>
  4010cb:	83 3d d6 43 20 00 00 	cmpl   $0x0,0x2043d6(%rip)        # 6054a8 <notify>
  4010d2:	0f 84 bb 00 00 00    	je     401193 <initialize_target+0x163>
  4010d8:	83 3d 49 44 20 00 00 	cmpl   $0x0,0x204449(%rip)        # 605528 <is_checker>
  4010df:	0f 85 ae 00 00 00    	jne    401193 <initialize_target+0x163>
  4010e5:	be 00 01 00 00       	mov    $0x100,%esi
  4010ea:	48 89 e7             	mov    %rsp,%rdi
  4010ed:	e8 4e fd ff ff       	callq  400e40 <gethostname@plt>
  4010f2:	85 c0                	test   %eax,%eax
  4010f4:	74 25                	je     40111b <initialize_target+0xeb>
  4010f6:	bf d8 2f 40 00       	mov    $0x402fd8,%edi
  4010fb:	e8 d0 fb ff ff       	callq  400cd0 <puts@plt>
  401100:	bf 08 00 00 00       	mov    $0x8,%edi
  401105:	e8 46 fd ff ff       	callq  400e50 <exit@plt>
  40110a:	48 89 e6             	mov    %rsp,%rsi
  40110d:	e8 6e fb ff ff       	callq  400c80 <strcasecmp@plt>
  401112:	85 c0                	test   %eax,%eax
  401114:	74 21                	je     401137 <initialize_target+0x107>
  401116:	83 c3 01             	add    $0x1,%ebx
  401119:	eb 05                	jmp    401120 <initialize_target+0xf0>
  40111b:	bb 00 00 00 00       	mov    $0x0,%ebx
  401120:	48 63 c3             	movslq %ebx,%rax
  401123:	48 8b 3c c5 80 51 60 	mov    0x605180(,%rax,8),%rdi
  40112a:	00 
  40112b:	48 85 ff             	test   %rdi,%rdi
  40112e:	75 da                	jne    40110a <initialize_target+0xda>
  401130:	b8 00 00 00 00       	mov    $0x0,%eax
  401135:	eb 05                	jmp    40113c <initialize_target+0x10c>
  401137:	b8 01 00 00 00       	mov    $0x1,%eax
  40113c:	85 c0                	test   %eax,%eax
  40113e:	75 1c                	jne    40115c <initialize_target+0x12c>
  401140:	48 89 e2             	mov    %rsp,%rdx
  401143:	be 10 30 40 00       	mov    $0x403010,%esi
  401148:	bf 01 00 00 00       	mov    $0x1,%edi
  40114d:	e8 ae fc ff ff       	callq  400e00 <__printf_chk@plt>
  401152:	bf 08 00 00 00       	mov    $0x8,%edi
  401157:	e8 f4 fc ff ff       	callq  400e50 <exit@plt>
  40115c:	48 8d bc 24 00 01 00 	lea    0x100(%rsp),%rdi
  401163:	00 
  401164:	e8 47 1a 00 00       	callq  402bb0 <init_driver>
  401169:	85 c0                	test   %eax,%eax
  40116b:	79 26                	jns    401193 <initialize_target+0x163>
  40116d:	48 8d 94 24 00 01 00 	lea    0x100(%rsp),%rdx
  401174:	00 
  401175:	be 50 30 40 00       	mov    $0x403050,%esi
  40117a:	bf 01 00 00 00       	mov    $0x1,%edi
  40117f:	b8 00 00 00 00       	mov    $0x0,%eax
  401184:	e8 77 fc ff ff       	callq  400e00 <__printf_chk@plt>
  401189:	bf 08 00 00 00       	mov    $0x8,%edi
  40118e:	e8 bd fc ff ff       	callq  400e50 <exit@plt>
  401193:	48 8b 84 24 08 21 00 	mov    0x2108(%rsp),%rax
  40119a:	00 
  40119b:	64 48 33 04 25 28 00 	xor    %fs:0x28,%rax
  4011a2:	00 00 
  4011a4:	74 05                	je     4011ab <initialize_target+0x17b>
  4011a6:	e8 45 fb ff ff       	callq  400cf0 <__stack_chk_fail@plt>
  4011ab:	48 81 c4 18 21 00 00 	add    $0x2118,%rsp
  4011b2:	5b                   	pop    %rbx
  4011b3:	5d                   	pop    %rbp
  4011b4:	c3                   	retq   

00000000004011b5 <main>:
  4011b5:	41 56                	push   %r14
  4011b7:	41 55                	push   %r13
  4011b9:	41 54                	push   %r12
  4011bb:	55                   	push   %rbp
  4011bc:	53                   	push   %rbx
  4011bd:	41 89 fc             	mov    %edi,%r12d
  4011c0:	48 89 f3             	mov    %rsi,%rbx
  4011c3:	be eb 1e 40 00       	mov    $0x401eeb,%esi
  4011c8:	bf 0b 00 00 00       	mov    $0xb,%edi
  4011cd:	e8 8e fb ff ff       	callq  400d60 <signal@plt>
  4011d2:	be 9d 1e 40 00       	mov    $0x401e9d,%esi
  4011d7:	bf 07 00 00 00       	mov    $0x7,%edi
  4011dc:	e8 7f fb ff ff       	callq  400d60 <signal@plt>
  4011e1:	be 39 1f 40 00       	mov    $0x401f39,%esi
  4011e6:	bf 04 00 00 00       	mov    $0x4,%edi
  4011eb:	e8 70 fb ff ff       	callq  400d60 <signal@plt>
  4011f0:	83 3d 31 43 20 00 00 	cmpl   $0x0,0x204331(%rip)        # 605528 <is_checker>
  4011f7:	74 20                	je     401219 <main+0x64>
  4011f9:	be 87 1f 40 00       	mov    $0x401f87,%esi
  4011fe:	bf 0e 00 00 00       	mov    $0xe,%edi
  401203:	e8 58 fb ff ff       	callq  400d60 <signal@plt>
  401208:	bf 05 00 00 00       	mov    $0x5,%edi
  40120d:	e8 0e fb ff ff       	callq  400d20 <alarm@plt>
  401212:	bd 1a 31 40 00       	mov    $0x40311a,%ebp
  401217:	eb 05                	jmp    40121e <main+0x69>
  401219:	bd 15 31 40 00       	mov    $0x403115,%ebp
  40121e:	48 8b 05 9b 42 20 00 	mov    0x20429b(%rip),%rax        # 6054c0 <stdin@@GLIBC_2.2.5>
  401225:	48 89 05 e4 42 20 00 	mov    %rax,0x2042e4(%rip)        # 605510 <infile>
  40122c:	41 bd 00 00 00 00    	mov    $0x0,%r13d
  401232:	41 be 00 00 00 00    	mov    $0x0,%r14d
  401238:	e9 c6 00 00 00       	jmpq   401303 <main+0x14e>
  40123d:	83 e8 61             	sub    $0x61,%eax
  401240:	3c 10                	cmp    $0x10,%al
  401242:	0f 87 9c 00 00 00    	ja     4012e4 <main+0x12f>
  401248:	0f b6 c0             	movzbl %al,%eax
  40124b:	ff 24 c5 60 31 40 00 	jmpq   *0x403160(,%rax,8)
  401252:	48 8b 3b             	mov    (%rbx),%rdi
  401255:	e8 4c fd ff ff       	callq  400fa6 <usage>
  40125a:	be ed 33 40 00       	mov    $0x4033ed,%esi
  40125f:	48 8b 3d 62 42 20 00 	mov    0x204262(%rip),%rdi        # 6054c8 <optarg@@GLIBC_2.2.5>
  401266:	e8 a5 fb ff ff       	callq  400e10 <fopen@plt>
  40126b:	48 89 05 9e 42 20 00 	mov    %rax,0x20429e(%rip)        # 605510 <infile>
  401272:	48 85 c0             	test   %rax,%rax
  401275:	0f 85 88 00 00 00    	jne    401303 <main+0x14e>
  40127b:	48 8b 0d 46 42 20 00 	mov    0x204246(%rip),%rcx        # 6054c8 <optarg@@GLIBC_2.2.5>
  401282:	ba 22 31 40 00       	mov    $0x403122,%edx
  401287:	be 01 00 00 00       	mov    $0x1,%esi
  40128c:	48 8b 3d 4d 42 20 00 	mov    0x20424d(%rip),%rdi        # 6054e0 <stderr@@GLIBC_2.2.5>
  401293:	e8 d8 fb ff ff       	callq  400e70 <__fprintf_chk@plt>
  401298:	b8 01 00 00 00       	mov    $0x1,%eax
  40129d:	e9 e4 00 00 00       	jmpq   401386 <main+0x1d1>
  4012a2:	ba 10 00 00 00       	mov    $0x10,%edx
  4012a7:	be 00 00 00 00       	mov    $0x0,%esi
  4012ac:	48 8b 3d 15 42 20 00 	mov    0x204215(%rip),%rdi        # 6054c8 <optarg@@GLIBC_2.2.5>
  4012b3:	e8 78 fb ff ff       	callq  400e30 <strtoul@plt>
  4012b8:	41 89 c6             	mov    %eax,%r14d
  4012bb:	eb 46                	jmp    401303 <main+0x14e>
  4012bd:	ba 0a 00 00 00       	mov    $0xa,%edx
  4012c2:	be 00 00 00 00       	mov    $0x0,%esi
  4012c7:	48 8b 3d fa 41 20 00 	mov    0x2041fa(%rip),%rdi        # 6054c8 <optarg@@GLIBC_2.2.5>
  4012ce:	e8 bd fa ff ff       	callq  400d90 <strtol@plt>
  4012d3:	41 89 c5             	mov    %eax,%r13d
  4012d6:	eb 2b                	jmp    401303 <main+0x14e>
  4012d8:	c7 05 c6 41 20 00 00 	movl   $0x0,0x2041c6(%rip)        # 6054a8 <notify>
  4012df:	00 00 00 
  4012e2:	eb 1f                	jmp    401303 <main+0x14e>
  4012e4:	0f be d2             	movsbl %dl,%edx
  4012e7:	be 3f 31 40 00       	mov    $0x40313f,%esi
  4012ec:	bf 01 00 00 00       	mov    $0x1,%edi
  4012f1:	b8 00 00 00 00       	mov    $0x0,%eax
  4012f6:	e8 05 fb ff ff       	callq  400e00 <__printf_chk@plt>
  4012fb:	48 8b 3b             	mov    (%rbx),%rdi
  4012fe:	e8 a3 fc ff ff       	callq  400fa6 <usage>
  401303:	48 89 ea             	mov    %rbp,%rdx
  401306:	48 89 de             	mov    %rbx,%rsi
  401309:	44 89 e7             	mov    %r12d,%edi
  40130c:	e8 0f fb ff ff       	callq  400e20 <getopt@plt>
  401311:	89 c2                	mov    %eax,%edx
  401313:	3c ff                	cmp    $0xff,%al
  401315:	0f 85 22 ff ff ff    	jne    40123d <main+0x88>
  40131b:	be 00 00 00 00       	mov    $0x0,%esi
  401320:	44 89 ef             	mov    %r13d,%edi
  401323:	e8 08 fd ff ff       	callq  401030 <initialize_target>
  401328:	83 3d f9 41 20 00 00 	cmpl   $0x0,0x2041f9(%rip)        # 605528 <is_checker>
  40132f:	74 2a                	je     40135b <main+0x1a6>
  401331:	44 3b 35 e8 41 20 00 	cmp    0x2041e8(%rip),%r14d        # 605520 <authkey>
  401338:	74 21                	je     40135b <main+0x1a6>
  40133a:	44 89 f2             	mov    %r14d,%edx
  40133d:	be 78 30 40 00       	mov    $0x403078,%esi
  401342:	bf 01 00 00 00       	mov    $0x1,%edi
  401347:	b8 00 00 00 00       	mov    $0x0,%eax
  40134c:	e8 af fa ff ff       	callq  400e00 <__printf_chk@plt>
  401351:	b8 00 00 00 00       	mov    $0x0,%eax
  401356:	e8 de 07 00 00       	callq  401b39 <check_fail>
  40135b:	8b 15 c3 41 20 00    	mov    0x2041c3(%rip),%edx        # 605524 <cookie>
  401361:	be 52 31 40 00       	mov    $0x403152,%esi
  401366:	bf 01 00 00 00       	mov    $0x1,%edi
  40136b:	b8 00 00 00 00       	mov    $0x0,%eax
  401370:	e8 8b fa ff ff       	callq  400e00 <__printf_chk@plt>
  401375:	48 8b 3d 24 41 20 00 	mov    0x204124(%rip),%rdi        # 6054a0 <buf_offset>
  40137c:	e8 06 0d 00 00       	callq  402087 <stable_launch>
  401381:	b8 00 00 00 00       	mov    $0x0,%eax
  401386:	5b                   	pop    %rbx
  401387:	5d                   	pop    %rbp
  401388:	41 5c                	pop    %r12
  40138a:	41 5d                	pop    %r13
  40138c:	41 5e                	pop    %r14
  40138e:	c3                   	retq   

000000000040138f <scramble>:
  40138f:	48 83 ec 38          	sub    $0x38,%rsp
  401393:	64 48 8b 04 25 28 00 	mov    %fs:0x28,%rax
  40139a:	00 00 
  40139c:	48 89 44 24 28       	mov    %rax,0x28(%rsp)
  4013a1:	31 c0                	xor    %eax,%eax
  4013a3:	eb 10                	jmp    4013b5 <scramble+0x26>
  4013a5:	69 d0 92 be 00 00    	imul   $0xbe92,%eax,%edx
  4013ab:	01 fa                	add    %edi,%edx
  4013ad:	89 c1                	mov    %eax,%ecx
  4013af:	89 14 8c             	mov    %edx,(%rsp,%rcx,4)
  4013b2:	83 c0 01             	add    $0x1,%eax
  4013b5:	83 f8 09             	cmp    $0x9,%eax
  4013b8:	76 eb                	jbe    4013a5 <scramble+0x16>
  4013ba:	8b 44 24 20          	mov    0x20(%rsp),%eax
  4013be:	69 c0 b2 36 00 00    	imul   $0x36b2,%eax,%eax
  4013c4:	89 44 24 20          	mov    %eax,0x20(%rsp)
  4013c8:	8b 44 24 14          	mov    0x14(%rsp),%eax
  4013cc:	69 c0 3b 4d 00 00    	imul   $0x4d3b,%eax,%eax
  4013d2:	89 44 24 14          	mov    %eax,0x14(%rsp)
  4013d6:	8b 44 24 0c          	mov    0xc(%rsp),%eax
  4013da:	69 c0 85 41 00 00    	imul   $0x4185,%eax,%eax
  4013e0:	89 44 24 0c          	mov    %eax,0xc(%rsp)
  4013e4:	8b 44 24 10          	mov    0x10(%rsp),%eax
  4013e8:	69 c0 81 51 00 00    	imul   $0x5181,%eax,%eax
  4013ee:	89 44 24 10          	mov    %eax,0x10(%rsp)
  4013f2:	8b 44 24 24          	mov    0x24(%rsp),%eax
  4013f6:	69 c0 da f0 00 00    	imul   $0xf0da,%eax,%eax
  4013fc:	89 44 24 24          	mov    %eax,0x24(%rsp)
  401400:	8b 44 24 10          	mov    0x10(%rsp),%eax
  401404:	69 c0 65 e1 00 00    	imul   $0xe165,%eax,%eax
  40140a:	89 44 24 10          	mov    %eax,0x10(%rsp)
  40140e:	8b 44 24 10          	mov    0x10(%rsp),%eax
  401412:	69 c0 78 8e 00 00    	imul   $0x8e78,%eax,%eax
  401418:	89 44 24 10          	mov    %eax,0x10(%rsp)
  40141c:	8b 44 24 1c          	mov    0x1c(%rsp),%eax
  401420:	69 c0 9b 2b 00 00    	imul   $0x2b9b,%eax,%eax
  401426:	89 44 24 1c          	mov    %eax,0x1c(%rsp)
  40142a:	8b 04 24             	mov    (%rsp),%eax
  40142d:	69 c0 2f a9 00 00    	imul   $0xa92f,%eax,%eax
  401433:	89 04 24             	mov    %eax,(%rsp)
  401436:	8b 44 24 20          	mov    0x20(%rsp),%eax
  40143a:	69 c0 7e d9 00 00    	imul   $0xd97e,%eax,%eax
  401440:	89 44 24 20          	mov    %eax,0x20(%rsp)
  401444:	8b 44 24 10          	mov    0x10(%rsp),%eax
  401448:	69 c0 5c 20 00 00    	imul   $0x205c,%eax,%eax
  40144e:	89 44 24 10          	mov    %eax,0x10(%rsp)
  401452:	8b 44 24 08          	mov    0x8(%rsp),%eax
  401456:	69 c0 a6 84 00 00    	imul   $0x84a6,%eax,%eax
  40145c:	89 44 24 08          	mov    %eax,0x8(%rsp)
  401460:	8b 44 24 18          	mov    0x18(%rsp),%eax
  401464:	69 c0 fb 98 00 00    	imul   $0x98fb,%eax,%eax
  40146a:	89 44 24 18          	mov    %eax,0x18(%rsp)
  40146e:	8b 44 24 1c          	mov    0x1c(%rsp),%eax
  401472:	69 c0 9a 0e 00 00    	imul   $0xe9a,%eax,%eax
  401478:	89 44 24 1c          	mov    %eax,0x1c(%rsp)
  40147c:	8b 04 24             	mov    (%rsp),%eax
  40147f:	69 c0 dc 6e 00 00    	imul   $0x6edc,%eax,%eax
  401485:	89 04 24             	mov    %eax,(%rsp)
  401488:	8b 54 24 0c          	mov    0xc(%rsp),%edx
  40148c:	89 d0                	mov    %edx,%eax
  40148e:	c1 e0 07             	shl    $0x7,%eax
  401491:	29 d0                	sub    %edx,%eax
  401493:	89 44 24 0c          	mov    %eax,0xc(%rsp)
  401497:	8b 44 24 1c          	mov    0x1c(%rsp),%eax
  40149b:	69 c0 2a 7e 00 00    	imul   $0x7e2a,%eax,%eax
  4014a1:	89 44 24 1c          	mov    %eax,0x1c(%rsp)
  4014a5:	8b 44 24 24          	mov    0x24(%rsp),%eax
  4014a9:	69 c0 86 0b 00 00    	imul   $0xb86,%eax,%eax
  4014af:	89 44 24 24          	mov    %eax,0x24(%rsp)
  4014b3:	8b 44 24 1c          	mov    0x1c(%rsp),%eax
  4014b7:	69 c0 54 94 00 00    	imul   $0x9454,%eax,%eax
  4014bd:	89 44 24 1c          	mov    %eax,0x1c(%rsp)
  4014c1:	8b 04 24             	mov    (%rsp),%eax
  4014c4:	69 c0 28 fb 00 00    	imul   $0xfb28,%eax,%eax
  4014ca:	89 04 24             	mov    %eax,(%rsp)
  4014cd:	8b 44 24 0c          	mov    0xc(%rsp),%eax
  4014d1:	69 c0 c5 42 00 00    	imul   $0x42c5,%eax,%eax
  4014d7:	89 44 24 0c          	mov    %eax,0xc(%rsp)
  4014db:	8b 44 24 1c          	mov    0x1c(%rsp),%eax
  4014df:	69 c0 4c f4 00 00    	imul   $0xf44c,%eax,%eax
  4014e5:	89 44 24 1c          	mov    %eax,0x1c(%rsp)
  4014e9:	8b 44 24 10          	mov    0x10(%rsp),%eax
  4014ed:	69 c0 f5 18 00 00    	imul   $0x18f5,%eax,%eax
  4014f3:	89 44 24 10          	mov    %eax,0x10(%rsp)
  4014f7:	8b 44 24 1c          	mov    0x1c(%rsp),%eax
  4014fb:	89 c2                	mov    %eax,%edx
  4014fd:	c1 e2 09             	shl    $0x9,%edx
  401500:	c1 e0 0c             	shl    $0xc,%eax
  401503:	29 d0                	sub    %edx,%eax
  401505:	89 44 24 1c          	mov    %eax,0x1c(%rsp)
  401509:	8b 44 24 20          	mov    0x20(%rsp),%eax
  40150d:	69 c0 04 49 00 00    	imul   $0x4904,%eax,%eax
  401513:	89 44 24 20          	mov    %eax,0x20(%rsp)
  401517:	8b 44 24 18          	mov    0x18(%rsp),%eax
  40151b:	69 c0 e5 00 00 00    	imul   $0xe5,%eax,%eax
  401521:	89 44 24 18          	mov    %eax,0x18(%rsp)
  401525:	8b 44 24 14          	mov    0x14(%rsp),%eax
  401529:	69 c0 51 c9 00 00    	imul   $0xc951,%eax,%eax
  40152f:	89 44 24 14          	mov    %eax,0x14(%rsp)
  401533:	8b 44 24 18          	mov    0x18(%rsp),%eax
  401537:	69 c0 48 fa 00 00    	imul   $0xfa48,%eax,%eax
  40153d:	89 44 24 18          	mov    %eax,0x18(%rsp)
  401541:	8b 44 24 20          	mov    0x20(%rsp),%eax
  401545:	69 c0 4e a5 00 00    	imul   $0xa54e,%eax,%eax
  40154b:	89 44 24 20          	mov    %eax,0x20(%rsp)
  40154f:	8b 44 24 10          	mov    0x10(%rsp),%eax
  401553:	69 c0 39 a4 00 00    	imul   $0xa439,%eax,%eax
  401559:	89 44 24 10          	mov    %eax,0x10(%rsp)
  40155d:	8b 44 24 24          	mov    0x24(%rsp),%eax
  401561:	69 c0 4d a4 00 00    	imul   $0xa44d,%eax,%eax
  401567:	89 44 24 24          	mov    %eax,0x24(%rsp)
  40156b:	8b 44 24 0c          	mov    0xc(%rsp),%eax
  40156f:	69 c0 b9 b9 00 00    	imul   $0xb9b9,%eax,%eax
  401575:	89 44 24 0c          	mov    %eax,0xc(%rsp)
  401579:	8b 04 24             	mov    (%rsp),%eax
  40157c:	69 c0 74 f2 00 00    	imul   $0xf274,%eax,%eax
  401582:	89 04 24             	mov    %eax,(%rsp)
  401585:	8b 04 24             	mov    (%rsp),%eax
  401588:	69 c0 27 e2 00 00    	imul   $0xe227,%eax,%eax
  40158e:	89 04 24             	mov    %eax,(%rsp)
  401591:	8b 44 24 04          	mov    0x4(%rsp),%eax
  401595:	69 c0 47 22 00 00    	imul   $0x2247,%eax,%eax
  40159b:	89 44 24 04          	mov    %eax,0x4(%rsp)
  40159f:	8b 44 24 20          	mov    0x20(%rsp),%eax
  4015a3:	69 c0 f6 0b 00 00    	imul   $0xbf6,%eax,%eax
  4015a9:	89 44 24 20          	mov    %eax,0x20(%rsp)
  4015ad:	8b 44 24 18          	mov    0x18(%rsp),%eax
  4015b1:	69 c0 dc b9 00 00    	imul   $0xb9dc,%eax,%eax
  4015b7:	89 44 24 18          	mov    %eax,0x18(%rsp)
  4015bb:	8b 44 24 18          	mov    0x18(%rsp),%eax
  4015bf:	69 c0 4a 36 00 00    	imul   $0x364a,%eax,%eax
  4015c5:	89 44 24 18          	mov    %eax,0x18(%rsp)
  4015c9:	8b 44 24 08          	mov    0x8(%rsp),%eax
  4015cd:	69 c0 2a 20 00 00    	imul   $0x202a,%eax,%eax
  4015d3:	89 44 24 08          	mov    %eax,0x8(%rsp)
  4015d7:	8b 44 24 18          	mov    0x18(%rsp),%eax
  4015db:	69 c0 f7 94 00 00    	imul   $0x94f7,%eax,%eax
  4015e1:	89 44 24 18          	mov    %eax,0x18(%rsp)
  4015e5:	8b 44 24 08          	mov    0x8(%rsp),%eax
  4015e9:	69 c0 c9 2b 00 00    	imul   $0x2bc9,%eax,%eax
  4015ef:	89 44 24 08          	mov    %eax,0x8(%rsp)
  4015f3:	8b 44 24 18          	mov    0x18(%rsp),%eax
  4015f7:	69 c0 8e d2 00 00    	imul   $0xd28e,%eax,%eax
  4015fd:	89 44 24 18          	mov    %eax,0x18(%rsp)
  401601:	8b 44 24 0c          	mov    0xc(%rsp),%eax
  401605:	69 c0 67 1b 00 00    	imul   $0x1b67,%eax,%eax
  40160b:	89 44 24 0c          	mov    %eax,0xc(%rsp)
  40160f:	8b 44 24 14          	mov    0x14(%rsp),%eax
  401613:	69 c0 66 57 00 00    	imul   $0x5766,%eax,%eax
  401619:	89 44 24 14          	mov    %eax,0x14(%rsp)
  40161d:	8b 04 24             	mov    (%rsp),%eax
  401620:	69 c0 b9 d5 00 00    	imul   $0xd5b9,%eax,%eax
  401626:	89 04 24             	mov    %eax,(%rsp)
  401629:	8b 44 24 10          	mov    0x10(%rsp),%eax
  40162d:	69 c0 e0 d4 00 00    	imul   $0xd4e0,%eax,%eax
  401633:	89 44 24 10          	mov    %eax,0x10(%rsp)
  401637:	8b 44 24 04          	mov    0x4(%rsp),%eax
  40163b:	69 c0 59 a0 00 00    	imul   $0xa059,%eax,%eax
  401641:	89 44 24 04          	mov    %eax,0x4(%rsp)
  401645:	8b 44 24 1c          	mov    0x1c(%rsp),%eax
  401649:	69 c0 7e 9c 00 00    	imul   $0x9c7e,%eax,%eax
  40164f:	89 44 24 1c          	mov    %eax,0x1c(%rsp)
  401653:	8b 44 24 0c          	mov    0xc(%rsp),%eax
  401657:	69 c0 d9 53 00 00    	imul   $0x53d9,%eax,%eax
  40165d:	89 44 24 0c          	mov    %eax,0xc(%rsp)
  401661:	8b 44 24 04          	mov    0x4(%rsp),%eax
  401665:	69 c0 95 19 00 00    	imul   $0x1995,%eax,%eax
  40166b:	89 44 24 04          	mov    %eax,0x4(%rsp)
  40166f:	8b 44 24 1c          	mov    0x1c(%rsp),%eax
  401673:	69 c0 f4 5b 00 00    	imul   $0x5bf4,%eax,%eax
  401679:	89 44 24 1c          	mov    %eax,0x1c(%rsp)
  40167d:	8b 44 24 08          	mov    0x8(%rsp),%eax
  401681:	69 c0 2d db 00 00    	imul   $0xdb2d,%eax,%eax
  401687:	89 44 24 08          	mov    %eax,0x8(%rsp)
  40168b:	8b 44 24 1c          	mov    0x1c(%rsp),%eax
  40168f:	69 c0 cd 25 00 00    	imul   $0x25cd,%eax,%eax
  401695:	89 44 24 1c          	mov    %eax,0x1c(%rsp)
  401699:	8b 44 24 18          	mov    0x18(%rsp),%eax
  40169d:	69 c0 a2 e8 00 00    	imul   $0xe8a2,%eax,%eax
  4016a3:	89 44 24 18          	mov    %eax,0x18(%rsp)
  4016a7:	8b 44 24 14          	mov    0x14(%rsp),%eax
  4016ab:	69 c0 c2 55 00 00    	imul   $0x55c2,%eax,%eax
  4016b1:	89 44 24 14          	mov    %eax,0x14(%rsp)
  4016b5:	8b 44 24 0c          	mov    0xc(%rsp),%eax
  4016b9:	69 c0 26 af 00 00    	imul   $0xaf26,%eax,%eax
  4016bf:	89 44 24 0c          	mov    %eax,0xc(%rsp)
  4016c3:	8b 44 24 1c          	mov    0x1c(%rsp),%eax
  4016c7:	69 c0 75 13 00 00    	imul   $0x1375,%eax,%eax
  4016cd:	89 44 24 1c          	mov    %eax,0x1c(%rsp)
  4016d1:	8b 44 24 24          	mov    0x24(%rsp),%eax
  4016d5:	69 c0 a5 76 00 00    	imul   $0x76a5,%eax,%eax
  4016db:	89 44 24 24          	mov    %eax,0x24(%rsp)
  4016df:	8b 44 24 14          	mov    0x14(%rsp),%eax
  4016e3:	69 c0 8c 4e 00 00    	imul   $0x4e8c,%eax,%eax
  4016e9:	89 44 24 14          	mov    %eax,0x14(%rsp)
  4016ed:	8b 44 24 0c          	mov    0xc(%rsp),%eax
  4016f1:	69 c0 92 ef 00 00    	imul   $0xef92,%eax,%eax
  4016f7:	89 44 24 0c          	mov    %eax,0xc(%rsp)
  4016fb:	8b 44 24 18          	mov    0x18(%rsp),%eax
  4016ff:	69 c0 ab c9 00 00    	imul   $0xc9ab,%eax,%eax
  401705:	89 44 24 18          	mov    %eax,0x18(%rsp)
  401709:	8b 44 24 10          	mov    0x10(%rsp),%eax
  40170d:	69 c0 4c 9e 00 00    	imul   $0x9e4c,%eax,%eax
  401713:	89 44 24 10          	mov    %eax,0x10(%rsp)
  401717:	8b 44 24 20          	mov    0x20(%rsp),%eax
  40171b:	69 c0 0c 53 00 00    	imul   $0x530c,%eax,%eax
  401721:	89 44 24 20          	mov    %eax,0x20(%rsp)
  401725:	8b 44 24 04          	mov    0x4(%rsp),%eax
  401729:	69 c0 d1 fc 00 00    	imul   $0xfcd1,%eax,%eax
  40172f:	89 44 24 04          	mov    %eax,0x4(%rsp)
  401733:	8b 04 24             	mov    (%rsp),%eax
  401736:	69 c0 6f b9 00 00    	imul   $0xb96f,%eax,%eax
  40173c:	89 04 24             	mov    %eax,(%rsp)
  40173f:	8b 44 24 1c          	mov    0x1c(%rsp),%eax
  401743:	69 c0 06 1d 00 00    	imul   $0x1d06,%eax,%eax
  401749:	89 44 24 1c          	mov    %eax,0x1c(%rsp)
  40174d:	8b 44 24 10          	mov    0x10(%rsp),%eax
  401751:	69 c0 f1 3b 00 00    	imul   $0x3bf1,%eax,%eax
  401757:	89 44 24 10          	mov    %eax,0x10(%rsp)
  40175b:	8b 44 24 14          	mov    0x14(%rsp),%eax
  40175f:	69 c0 33 2b 00 00    	imul   $0x2b33,%eax,%eax
  401765:	89 44 24 14          	mov    %eax,0x14(%rsp)
  401769:	8b 04 24             	mov    (%rsp),%eax
  40176c:	69 c0 ab 09 00 00    	imul   $0x9ab,%eax,%eax
  401772:	89 04 24             	mov    %eax,(%rsp)
  401775:	8b 44 24 04          	mov    0x4(%rsp),%eax
  401779:	69 c0 b7 a7 00 00    	imul   $0xa7b7,%eax,%eax
  40177f:	89 44 24 04          	mov    %eax,0x4(%rsp)
  401783:	8b 44 24 14          	mov    0x14(%rsp),%eax
  401787:	69 c0 6f 91 00 00    	imul   $0x916f,%eax,%eax
  40178d:	89 44 24 14          	mov    %eax,0x14(%rsp)
  401791:	8b 44 24 14          	mov    0x14(%rsp),%eax
  401795:	69 c0 f8 e0 00 00    	imul   $0xe0f8,%eax,%eax
  40179b:	89 44 24 14          	mov    %eax,0x14(%rsp)
  40179f:	8b 44 24 1c          	mov    0x1c(%rsp),%eax
  4017a3:	69 c0 92 d8 00 00    	imul   $0xd892,%eax,%eax
  4017a9:	89 44 24 1c          	mov    %eax,0x1c(%rsp)
  4017ad:	8b 44 24 10          	mov    0x10(%rsp),%eax
  4017b1:	69 c0 c2 d3 00 00    	imul   $0xd3c2,%eax,%eax
  4017b7:	89 44 24 10          	mov    %eax,0x10(%rsp)
  4017bb:	8b 44 24 08          	mov    0x8(%rsp),%eax
  4017bf:	69 c0 a9 25 00 00    	imul   $0x25a9,%eax,%eax
  4017c5:	89 44 24 08          	mov    %eax,0x8(%rsp)
  4017c9:	8b 44 24 20          	mov    0x20(%rsp),%eax
  4017cd:	69 c0 64 4b 00 00    	imul   $0x4b64,%eax,%eax
  4017d3:	89 44 24 20          	mov    %eax,0x20(%rsp)
  4017d7:	8b 44 24 20          	mov    0x20(%rsp),%eax
  4017db:	69 c0 c7 87 00 00    	imul   $0x87c7,%eax,%eax
  4017e1:	89 44 24 20          	mov    %eax,0x20(%rsp)
  4017e5:	8b 44 24 04          	mov    0x4(%rsp),%eax
  4017e9:	69 c0 59 59 00 00    	imul   $0x5959,%eax,%eax
  4017ef:	89 44 24 04          	mov    %eax,0x4(%rsp)
  4017f3:	8b 44 24 20          	mov    0x20(%rsp),%eax
  4017f7:	69 c0 7a 24 00 00    	imul   $0x247a,%eax,%eax
  4017fd:	89 44 24 20          	mov    %eax,0x20(%rsp)
  401801:	8b 44 24 04          	mov    0x4(%rsp),%eax
  401805:	69 c0 b8 81 00 00    	imul   $0x81b8,%eax,%eax
  40180b:	89 44 24 04          	mov    %eax,0x4(%rsp)
  40180f:	8b 44 24 1c          	mov    0x1c(%rsp),%eax
  401813:	69 c0 91 6c 00 00    	imul   $0x6c91,%eax,%eax
  401819:	89 44 24 1c          	mov    %eax,0x1c(%rsp)
  40181d:	8b 04 24             	mov    (%rsp),%eax
  401820:	69 c0 4c f3 00 00    	imul   $0xf34c,%eax,%eax
  401826:	89 04 24             	mov    %eax,(%rsp)
  401829:	8b 44 24 04          	mov    0x4(%rsp),%eax
  40182d:	69 c0 f3 96 00 00    	imul   $0x96f3,%eax,%eax
  401833:	89 44 24 04          	mov    %eax,0x4(%rsp)
  401837:	8b 44 24 10          	mov    0x10(%rsp),%eax
  40183b:	69 c0 41 0a 00 00    	imul   $0xa41,%eax,%eax
  401841:	89 44 24 10          	mov    %eax,0x10(%rsp)
  401845:	8b 44 24 20          	mov    0x20(%rsp),%eax
  401849:	69 c0 55 32 00 00    	imul   $0x3255,%eax,%eax
  40184f:	89 44 24 20          	mov    %eax,0x20(%rsp)
  401853:	8b 44 24 24          	mov    0x24(%rsp),%eax
  401857:	8d 14 40             	lea    (%rax,%rax,2),%edx
  40185a:	8d 04 95 00 00 00 00 	lea    0x0(,%rdx,4),%eax
  401861:	89 44 24 24          	mov    %eax,0x24(%rsp)
  401865:	8b 44 24 10          	mov    0x10(%rsp),%eax
  401869:	69 c0 d6 08 00 00    	imul   $0x8d6,%eax,%eax
  40186f:	89 44 24 10          	mov    %eax,0x10(%rsp)
  401873:	8b 44 24 20          	mov    0x20(%rsp),%eax
  401877:	69 c0 aa 68 00 00    	imul   $0x68aa,%eax,%eax
  40187d:	89 44 24 20          	mov    %eax,0x20(%rsp)
  401881:	8b 44 24 10          	mov    0x10(%rsp),%eax
  401885:	69 c0 a2 38 00 00    	imul   $0x38a2,%eax,%eax
  40188b:	89 44 24 10          	mov    %eax,0x10(%rsp)
  40188f:	8b 44 24 14          	mov    0x14(%rsp),%eax
  401893:	69 c0 87 08 00 00    	imul   $0x887,%eax,%eax
  401899:	89 44 24 14          	mov    %eax,0x14(%rsp)
  40189d:	8b 44 24 0c          	mov    0xc(%rsp),%eax
  4018a1:	89 c2                	mov    %eax,%edx
  4018a3:	c1 e2 06             	shl    $0x6,%edx
  4018a6:	c1 e0 10             	shl    $0x10,%eax
  4018a9:	29 d0                	sub    %edx,%eax
  4018ab:	89 44 24 0c          	mov    %eax,0xc(%rsp)
  4018af:	ba 00 00 00 00       	mov    $0x0,%edx
  4018b4:	b8 00 00 00 00       	mov    $0x0,%eax
  4018b9:	eb 0a                	jmp    4018c5 <scramble+0x536>
  4018bb:	89 d1                	mov    %edx,%ecx
  4018bd:	8b 0c 8c             	mov    (%rsp,%rcx,4),%ecx
  4018c0:	01 c8                	add    %ecx,%eax
  4018c2:	83 c2 01             	add    $0x1,%edx
  4018c5:	83 fa 09             	cmp    $0x9,%edx
  4018c8:	76 f1                	jbe    4018bb <scramble+0x52c>
  4018ca:	48 8b 74 24 28       	mov    0x28(%rsp),%rsi
  4018cf:	64 48 33 34 25 28 00 	xor    %fs:0x28,%rsi
  4018d6:	00 00 
  4018d8:	74 05                	je     4018df <scramble+0x550>
  4018da:	e8 11 f4 ff ff       	callq  400cf0 <__stack_chk_fail@plt>
  4018df:	48 83 c4 38          	add    $0x38,%rsp
  4018e3:	c3                   	retq   

00000000004018e4 <getbuf>:
  4018e4:	48 83 ec 38          	sub    $0x38,%rsp
  4018e8:	48 89 e7             	mov    %rsp,%rdi
  4018eb:	e8 7e 02 00 00       	callq  401b6e <Gets>
  4018f0:	b8 01 00 00 00       	mov    $0x1,%eax
  4018f5:	48 83 c4 38          	add    $0x38,%rsp
  4018f9:	c3                   	retq   

00000000004018fa <touch1>:
  4018fa:	48 83 ec 08          	sub    $0x8,%rsp
  4018fe:	c7 05 14 3c 20 00 01 	movl   $0x1,0x203c14(%rip)        # 60551c <vlevel>
  401905:	00 00 00 
  401908:	bf 46 32 40 00       	mov    $0x403246,%edi
  40190d:	e8 be f3 ff ff       	callq  400cd0 <puts@plt>
  401912:	bf 01 00 00 00       	mov    $0x1,%edi
  401917:	e8 97 04 00 00       	callq  401db3 <validate>
  40191c:	bf 00 00 00 00       	mov    $0x0,%edi
  401921:	e8 2a f5 ff ff       	callq  400e50 <exit@plt>

0000000000401926 <touch2>:
  401926:	48 83 ec 08          	sub    $0x8,%rsp
  40192a:	89 fa                	mov    %edi,%edx
  40192c:	c7 05 e6 3b 20 00 02 	movl   $0x2,0x203be6(%rip)        # 60551c <vlevel>
  401933:	00 00 00 
  401936:	39 3d e8 3b 20 00    	cmp    %edi,0x203be8(%rip)        # 605524 <cookie>
  40193c:	75 20                	jne    40195e <touch2+0x38>
  40193e:	be 68 32 40 00       	mov    $0x403268,%esi
  401943:	bf 01 00 00 00       	mov    $0x1,%edi
  401948:	b8 00 00 00 00       	mov    $0x0,%eax
  40194d:	e8 ae f4 ff ff       	callq  400e00 <__printf_chk@plt>
  401952:	bf 02 00 00 00       	mov    $0x2,%edi
  401957:	e8 57 04 00 00       	callq  401db3 <validate>
  40195c:	eb 1e                	jmp    40197c <touch2+0x56>
  40195e:	be 90 32 40 00       	mov    $0x403290,%esi
  401963:	bf 01 00 00 00       	mov    $0x1,%edi
  401968:	b8 00 00 00 00       	mov    $0x0,%eax
  40196d:	e8 8e f4 ff ff       	callq  400e00 <__printf_chk@plt>
  401972:	bf 02 00 00 00       	mov    $0x2,%edi
  401977:	e8 f9 04 00 00       	callq  401e75 <fail>
  40197c:	bf 00 00 00 00       	mov    $0x0,%edi
  401981:	e8 ca f4 ff ff       	callq  400e50 <exit@plt>

0000000000401986 <hexmatch>:
  401986:	41 54                	push   %r12
  401988:	55                   	push   %rbp
  401989:	53                   	push   %rbx
  40198a:	48 83 c4 80          	add    $0xffffffffffffff80,%rsp
  40198e:	89 fd                	mov    %edi,%ebp
  401990:	48 89 f3             	mov    %rsi,%rbx
  401993:	64 48 8b 04 25 28 00 	mov    %fs:0x28,%rax
  40199a:	00 00 
  40199c:	48 89 44 24 78       	mov    %rax,0x78(%rsp)
  4019a1:	31 c0                	xor    %eax,%eax
  4019a3:	e8 18 f4 ff ff       	callq  400dc0 <random@plt>
  4019a8:	48 89 c1             	mov    %rax,%rcx
  4019ab:	48 ba 0b d7 a3 70 3d 	movabs $0xa3d70a3d70a3d70b,%rdx
  4019b2:	0a d7 a3 
  4019b5:	48 f7 ea             	imul   %rdx
  4019b8:	48 01 ca             	add    %rcx,%rdx
  4019bb:	48 c1 fa 06          	sar    $0x6,%rdx
  4019bf:	48 89 c8             	mov    %rcx,%rax
  4019c2:	48 c1 f8 3f          	sar    $0x3f,%rax
  4019c6:	48 29 c2             	sub    %rax,%rdx
  4019c9:	48 8d 04 92          	lea    (%rdx,%rdx,4),%rax
  4019cd:	48 8d 14 80          	lea    (%rax,%rax,4),%rdx
  4019d1:	48 8d 04 95 00 00 00 	lea    0x0(,%rdx,4),%rax
  4019d8:	00 
  4019d9:	48 29 c1             	sub    %rax,%rcx
  4019dc:	4c 8d 24 0c          	lea    (%rsp,%rcx,1),%r12
  4019e0:	41 89 e8             	mov    %ebp,%r8d
  4019e3:	b9 63 32 40 00       	mov    $0x403263,%ecx
  4019e8:	48 c7 c2 ff ff ff ff 	mov    $0xffffffffffffffff,%rdx
  4019ef:	be 01 00 00 00       	mov    $0x1,%esi
  4019f4:	4c 89 e7             	mov    %r12,%rdi
  4019f7:	b8 00 00 00 00       	mov    $0x0,%eax
  4019fc:	e8 7f f4 ff ff       	callq  400e80 <__sprintf_chk@plt>
  401a01:	ba 09 00 00 00       	mov    $0x9,%edx
  401a06:	4c 89 e6             	mov    %r12,%rsi
  401a09:	48 89 df             	mov    %rbx,%rdi
  401a0c:	e8 9f f2 ff ff       	callq  400cb0 <strncmp@plt>
  401a11:	85 c0                	test   %eax,%eax
  401a13:	0f 94 c0             	sete   %al
  401a16:	48 8b 5c 24 78       	mov    0x78(%rsp),%rbx
  401a1b:	64 48 33 1c 25 28 00 	xor    %fs:0x28,%rbx
  401a22:	00 00 
  401a24:	74 05                	je     401a2b <hexmatch+0xa5>
  401a26:	e8 c5 f2 ff ff       	callq  400cf0 <__stack_chk_fail@plt>
  401a2b:	0f b6 c0             	movzbl %al,%eax
  401a2e:	48 83 ec 80          	sub    $0xffffffffffffff80,%rsp
  401a32:	5b                   	pop    %rbx
  401a33:	5d                   	pop    %rbp
  401a34:	41 5c                	pop    %r12
  401a36:	c3                   	retq   

0000000000401a37 <touch3>:
  401a37:	53                   	push   %rbx
  401a38:	48 89 fb             	mov    %rdi,%rbx
  401a3b:	c7 05 d7 3a 20 00 03 	movl   $0x3,0x203ad7(%rip)        # 60551c <vlevel>
  401a42:	00 00 00 
  401a45:	48 89 fe             	mov    %rdi,%rsi
  401a48:	8b 3d d6 3a 20 00    	mov    0x203ad6(%rip),%edi        # 605524 <cookie>
  401a4e:	e8 33 ff ff ff       	callq  401986 <hexmatch>
  401a53:	85 c0                	test   %eax,%eax
  401a55:	74 23                	je     401a7a <touch3+0x43>
  401a57:	48 89 da             	mov    %rbx,%rdx
  401a5a:	be b8 32 40 00       	mov    $0x4032b8,%esi
  401a5f:	bf 01 00 00 00       	mov    $0x1,%edi
  401a64:	b8 00 00 00 00       	mov    $0x0,%eax
  401a69:	e8 92 f3 ff ff       	callq  400e00 <__printf_chk@plt>
  401a6e:	bf 03 00 00 00       	mov    $0x3,%edi
  401a73:	e8 3b 03 00 00       	callq  401db3 <validate>
  401a78:	eb 21                	jmp    401a9b <touch3+0x64>
  401a7a:	48 89 da             	mov    %rbx,%rdx
  401a7d:	be e0 32 40 00       	mov    $0x4032e0,%esi
  401a82:	bf 01 00 00 00       	mov    $0x1,%edi
  401a87:	b8 00 00 00 00       	mov    $0x0,%eax
  401a8c:	e8 6f f3 ff ff       	callq  400e00 <__printf_chk@plt>
  401a91:	bf 03 00 00 00       	mov    $0x3,%edi
  401a96:	e8 da 03 00 00       	callq  401e75 <fail>
  401a9b:	bf 00 00 00 00       	mov    $0x0,%edi
  401aa0:	e8 ab f3 ff ff       	callq  400e50 <exit@plt>

0000000000401aa5 <test>:
  401aa5:	48 83 ec 08          	sub    $0x8,%rsp
  401aa9:	b8 00 00 00 00       	mov    $0x0,%eax
  401aae:	e8 31 fe ff ff       	callq  4018e4 <getbuf>
  401ab3:	89 c2                	mov    %eax,%edx
  401ab5:	be 08 33 40 00       	mov    $0x403308,%esi
  401aba:	bf 01 00 00 00       	mov    $0x1,%edi
  401abf:	b8 00 00 00 00       	mov    $0x0,%eax
  401ac4:	e8 37 f3 ff ff       	callq  400e00 <__printf_chk@plt>
  401ac9:	48 83 c4 08          	add    $0x8,%rsp
  401acd:	c3                   	retq   

0000000000401ace <save_char>:
  401ace:	8b 05 70 46 20 00    	mov    0x204670(%rip),%eax        # 606144 <gets_cnt>
  401ad4:	3d ff 03 00 00       	cmp    $0x3ff,%eax
  401ad9:	7f 49                	jg     401b24 <save_char+0x56>
  401adb:	8d 14 40             	lea    (%rax,%rax,2),%edx
  401ade:	89 f9                	mov    %edi,%ecx
  401ae0:	c0 e9 04             	shr    $0x4,%cl
  401ae3:	83 e1 0f             	and    $0xf,%ecx
  401ae6:	0f b6 b1 30 36 40 00 	movzbl 0x403630(%rcx),%esi
  401aed:	48 63 ca             	movslq %edx,%rcx
  401af0:	40 88 b1 40 55 60 00 	mov    %sil,0x605540(%rcx)
  401af7:	8d 4a 01             	lea    0x1(%rdx),%ecx
  401afa:	83 e7 0f             	and    $0xf,%edi
  401afd:	0f b6 b7 30 36 40 00 	movzbl 0x403630(%rdi),%esi
  401b04:	48 63 c9             	movslq %ecx,%rcx
  401b07:	40 88 b1 40 55 60 00 	mov    %sil,0x605540(%rcx)
  401b0e:	83 c2 02             	add    $0x2,%edx
  401b11:	48 63 d2             	movslq %edx,%rdx
  401b14:	c6 82 40 55 60 00 20 	movb   $0x20,0x605540(%rdx)
  401b1b:	83 c0 01             	add    $0x1,%eax
  401b1e:	89 05 20 46 20 00    	mov    %eax,0x204620(%rip)        # 606144 <gets_cnt>
  401b24:	f3 c3                	repz retq 

0000000000401b26 <save_term>:
  401b26:	8b 05 18 46 20 00    	mov    0x204618(%rip),%eax        # 606144 <gets_cnt>
  401b2c:	8d 04 40             	lea    (%rax,%rax,2),%eax
  401b2f:	48 98                	cltq   
  401b31:	c6 80 40 55 60 00 00 	movb   $0x0,0x605540(%rax)
  401b38:	c3                   	retq   

0000000000401b39 <check_fail>:
  401b39:	48 83 ec 08          	sub    $0x8,%rsp
  401b3d:	0f be 15 04 46 20 00 	movsbl 0x204604(%rip),%edx        # 606148 <target_prefix>
  401b44:	41 b8 40 55 60 00    	mov    $0x605540,%r8d
  401b4a:	8b 0d c8 39 20 00    	mov    0x2039c8(%rip),%ecx        # 605518 <check_level>
  401b50:	be 2b 33 40 00       	mov    $0x40332b,%esi
  401b55:	bf 01 00 00 00       	mov    $0x1,%edi
  401b5a:	b8 00 00 00 00       	mov    $0x0,%eax
  401b5f:	e8 9c f2 ff ff       	callq  400e00 <__printf_chk@plt>
  401b64:	bf 01 00 00 00       	mov    $0x1,%edi
  401b69:	e8 e2 f2 ff ff       	callq  400e50 <exit@plt>

0000000000401b6e <Gets>:
  401b6e:	41 54                	push   %r12
  401b70:	55                   	push   %rbp
  401b71:	53                   	push   %rbx
  401b72:	49 89 fc             	mov    %rdi,%r12
  401b75:	c7 05 c5 45 20 00 00 	movl   $0x0,0x2045c5(%rip)        # 606144 <gets_cnt>
  401b7c:	00 00 00 
  401b7f:	48 89 fb             	mov    %rdi,%rbx
  401b82:	eb 11                	jmp    401b95 <Gets+0x27>
  401b84:	48 8d 6b 01          	lea    0x1(%rbx),%rbp
  401b88:	88 03                	mov    %al,(%rbx)
  401b8a:	0f b6 f8             	movzbl %al,%edi
  401b8d:	e8 3c ff ff ff       	callq  401ace <save_char>
  401b92:	48 89 eb             	mov    %rbp,%rbx
  401b95:	48 8b 3d 74 39 20 00 	mov    0x203974(%rip),%rdi        # 605510 <infile>
  401b9c:	e8 2f f2 ff ff       	callq  400dd0 <_IO_getc@plt>
  401ba1:	83 f8 ff             	cmp    $0xffffffff,%eax
  401ba4:	74 05                	je     401bab <Gets+0x3d>
  401ba6:	83 f8 0a             	cmp    $0xa,%eax
  401ba9:	75 d9                	jne    401b84 <Gets+0x16>
  401bab:	c6 03 00             	movb   $0x0,(%rbx)
  401bae:	b8 00 00 00 00       	mov    $0x0,%eax
  401bb3:	e8 6e ff ff ff       	callq  401b26 <save_term>
  401bb8:	4c 89 e0             	mov    %r12,%rax
  401bbb:	5b                   	pop    %rbx
  401bbc:	5d                   	pop    %rbp
  401bbd:	41 5c                	pop    %r12
  401bbf:	c3                   	retq   

0000000000401bc0 <notify_server>:
  401bc0:	53                   	push   %rbx
  401bc1:	48 81 ec 10 40 00 00 	sub    $0x4010,%rsp
  401bc8:	64 48 8b 04 25 28 00 	mov    %fs:0x28,%rax
  401bcf:	00 00 
  401bd1:	48 89 84 24 08 40 00 	mov    %rax,0x4008(%rsp)
  401bd8:	00 
  401bd9:	31 c0                	xor    %eax,%eax
  401bdb:	83 3d 46 39 20 00 00 	cmpl   $0x0,0x203946(%rip)        # 605528 <is_checker>
  401be2:	0f 85 aa 01 00 00    	jne    401d92 <notify_server+0x1d2>
  401be8:	89 fb                	mov    %edi,%ebx
  401bea:	8b 05 54 45 20 00    	mov    0x204554(%rip),%eax        # 606144 <gets_cnt>
  401bf0:	83 c0 64             	add    $0x64,%eax
  401bf3:	3d 00 20 00 00       	cmp    $0x2000,%eax
  401bf8:	7e 1e                	jle    401c18 <notify_server+0x58>
  401bfa:	be 60 34 40 00       	mov    $0x403460,%esi
  401bff:	bf 01 00 00 00       	mov    $0x1,%edi
  401c04:	b8 00 00 00 00       	mov    $0x0,%eax
  401c09:	e8 f2 f1 ff ff       	callq  400e00 <__printf_chk@plt>
  401c0e:	bf 01 00 00 00       	mov    $0x1,%edi
  401c13:	e8 38 f2 ff ff       	callq  400e50 <exit@plt>
  401c18:	0f be 05 29 45 20 00 	movsbl 0x204529(%rip),%eax        # 606148 <target_prefix>
  401c1f:	83 3d 82 38 20 00 00 	cmpl   $0x0,0x203882(%rip)        # 6054a8 <notify>
  401c26:	74 08                	je     401c30 <notify_server+0x70>
  401c28:	8b 15 f2 38 20 00    	mov    0x2038f2(%rip),%edx        # 605520 <authkey>
  401c2e:	eb 05                	jmp    401c35 <notify_server+0x75>
  401c30:	ba ff ff ff ff       	mov    $0xffffffff,%edx
  401c35:	85 db                	test   %ebx,%ebx
  401c37:	74 08                	je     401c41 <notify_server+0x81>
  401c39:	41 b9 41 33 40 00    	mov    $0x403341,%r9d
  401c3f:	eb 06                	jmp    401c47 <notify_server+0x87>
  401c41:	41 b9 46 33 40 00    	mov    $0x403346,%r9d
  401c47:	68 40 55 60 00       	pushq  $0x605540
  401c4c:	56                   	push   %rsi
  401c4d:	50                   	push   %rax
  401c4e:	52                   	push   %rdx
  401c4f:	44 8b 05 12 35 20 00 	mov    0x203512(%rip),%r8d        # 605168 <target_id>
  401c56:	b9 4b 33 40 00       	mov    $0x40334b,%ecx
  401c5b:	ba 00 20 00 00       	mov    $0x2000,%edx
  401c60:	be 01 00 00 00       	mov    $0x1,%esi
  401c65:	48 8d 7c 24 20       	lea    0x20(%rsp),%rdi
  401c6a:	b8 00 00 00 00       	mov    $0x0,%eax
  401c6f:	e8 0c f2 ff ff       	callq  400e80 <__sprintf_chk@plt>
  401c74:	48 83 c4 20          	add    $0x20,%rsp
  401c78:	83 3d 29 38 20 00 00 	cmpl   $0x0,0x203829(%rip)        # 6054a8 <notify>
  401c7f:	0f 84 81 00 00 00    	je     401d06 <notify_server+0x146>
  401c85:	85 db                	test   %ebx,%ebx
  401c87:	74 6e                	je     401cf7 <notify_server+0x137>
  401c89:	4c 8d 8c 24 00 20 00 	lea    0x2000(%rsp),%r9
  401c90:	00 
  401c91:	41 b8 00 00 00 00    	mov    $0x0,%r8d
  401c97:	48 89 e1             	mov    %rsp,%rcx
  401c9a:	48 8b 15 cf 34 20 00 	mov    0x2034cf(%rip),%rdx        # 605170 <lab>
  401ca1:	48 8b 35 d0 34 20 00 	mov    0x2034d0(%rip),%rsi        # 605178 <course>
  401ca8:	48 8b 3d b1 34 20 00 	mov    0x2034b1(%rip),%rdi        # 605160 <user_id>
  401caf:	e8 ef 10 00 00       	callq  402da3 <driver_post>
  401cb4:	85 c0                	test   %eax,%eax
  401cb6:	79 26                	jns    401cde <notify_server+0x11e>
  401cb8:	48 8d 94 24 00 20 00 	lea    0x2000(%rsp),%rdx
  401cbf:	00 
  401cc0:	be 67 33 40 00       	mov    $0x403367,%esi
  401cc5:	bf 01 00 00 00       	mov    $0x1,%edi
  401cca:	b8 00 00 00 00       	mov    $0x0,%eax
  401ccf:	e8 2c f1 ff ff       	callq  400e00 <__printf_chk@plt>
  401cd4:	bf 01 00 00 00       	mov    $0x1,%edi
  401cd9:	e8 72 f1 ff ff       	callq  400e50 <exit@plt>
  401cde:	bf 90 34 40 00       	mov    $0x403490,%edi
  401ce3:	e8 e8 ef ff ff       	callq  400cd0 <puts@plt>
  401ce8:	bf 73 33 40 00       	mov    $0x403373,%edi
  401ced:	e8 de ef ff ff       	callq  400cd0 <puts@plt>
  401cf2:	e9 9b 00 00 00       	jmpq   401d92 <notify_server+0x1d2>
  401cf7:	bf 7d 33 40 00       	mov    $0x40337d,%edi
  401cfc:	e8 cf ef ff ff       	callq  400cd0 <puts@plt>
  401d01:	e9 8c 00 00 00       	jmpq   401d92 <notify_server+0x1d2>
  401d06:	85 db                	test   %ebx,%ebx
  401d08:	74 07                	je     401d11 <notify_server+0x151>
  401d0a:	ba 41 33 40 00       	mov    $0x403341,%edx
  401d0f:	eb 05                	jmp    401d16 <notify_server+0x156>
  401d11:	ba 46 33 40 00       	mov    $0x403346,%edx
  401d16:	be c8 34 40 00       	mov    $0x4034c8,%esi
  401d1b:	bf 01 00 00 00       	mov    $0x1,%edi
  401d20:	b8 00 00 00 00       	mov    $0x0,%eax
  401d25:	e8 d6 f0 ff ff       	callq  400e00 <__printf_chk@plt>
  401d2a:	48 8b 15 2f 34 20 00 	mov    0x20342f(%rip),%rdx        # 605160 <user_id>
  401d31:	be 84 33 40 00       	mov    $0x403384,%esi
  401d36:	bf 01 00 00 00       	mov    $0x1,%edi
  401d3b:	b8 00 00 00 00       	mov    $0x0,%eax
  401d40:	e8 bb f0 ff ff       	callq  400e00 <__printf_chk@plt>
  401d45:	48 8b 15 2c 34 20 00 	mov    0x20342c(%rip),%rdx        # 605178 <course>
  401d4c:	be 91 33 40 00       	mov    $0x403391,%esi
  401d51:	bf 01 00 00 00       	mov    $0x1,%edi
  401d56:	b8 00 00 00 00       	mov    $0x0,%eax
  401d5b:	e8 a0 f0 ff ff       	callq  400e00 <__printf_chk@plt>
  401d60:	48 8b 15 09 34 20 00 	mov    0x203409(%rip),%rdx        # 605170 <lab>
  401d67:	be 9d 33 40 00       	mov    $0x40339d,%esi
  401d6c:	bf 01 00 00 00       	mov    $0x1,%edi
  401d71:	b8 00 00 00 00       	mov    $0x0,%eax
  401d76:	e8 85 f0 ff ff       	callq  400e00 <__printf_chk@plt>
  401d7b:	48 89 e2             	mov    %rsp,%rdx
  401d7e:	be a6 33 40 00       	mov    $0x4033a6,%esi
  401d83:	bf 01 00 00 00       	mov    $0x1,%edi
  401d88:	b8 00 00 00 00       	mov    $0x0,%eax
  401d8d:	e8 6e f0 ff ff       	callq  400e00 <__printf_chk@plt>
  401d92:	48 8b 84 24 08 40 00 	mov    0x4008(%rsp),%rax
  401d99:	00 
  401d9a:	64 48 33 04 25 28 00 	xor    %fs:0x28,%rax
  401da1:	00 00 
  401da3:	74 05                	je     401daa <notify_server+0x1ea>
  401da5:	e8 46 ef ff ff       	callq  400cf0 <__stack_chk_fail@plt>
  401daa:	48 81 c4 10 40 00 00 	add    $0x4010,%rsp
  401db1:	5b                   	pop    %rbx
  401db2:	c3                   	retq   

0000000000401db3 <validate>:
  401db3:	53                   	push   %rbx
  401db4:	89 fb                	mov    %edi,%ebx
  401db6:	83 3d 6b 37 20 00 00 	cmpl   $0x0,0x20376b(%rip)        # 605528 <is_checker>
  401dbd:	74 6b                	je     401e2a <validate+0x77>
  401dbf:	39 3d 57 37 20 00    	cmp    %edi,0x203757(%rip)        # 60551c <vlevel>
  401dc5:	74 14                	je     401ddb <validate+0x28>
  401dc7:	bf b2 33 40 00       	mov    $0x4033b2,%edi
  401dcc:	e8 ff ee ff ff       	callq  400cd0 <puts@plt>
  401dd1:	b8 00 00 00 00       	mov    $0x0,%eax
  401dd6:	e8 5e fd ff ff       	callq  401b39 <check_fail>
  401ddb:	8b 15 37 37 20 00    	mov    0x203737(%rip),%edx        # 605518 <check_level>
  401de1:	39 d7                	cmp    %edx,%edi
  401de3:	74 20                	je     401e05 <validate+0x52>
  401de5:	89 f9                	mov    %edi,%ecx
  401de7:	be f0 34 40 00       	mov    $0x4034f0,%esi
  401dec:	bf 01 00 00 00       	mov    $0x1,%edi
  401df1:	b8 00 00 00 00       	mov    $0x0,%eax
  401df6:	e8 05 f0 ff ff       	callq  400e00 <__printf_chk@plt>
  401dfb:	b8 00 00 00 00       	mov    $0x0,%eax
  401e00:	e8 34 fd ff ff       	callq  401b39 <check_fail>
  401e05:	0f be 15 3c 43 20 00 	movsbl 0x20433c(%rip),%edx        # 606148 <target_prefix>
  401e0c:	41 b8 40 55 60 00    	mov    $0x605540,%r8d
  401e12:	89 f9                	mov    %edi,%ecx
  401e14:	be d0 33 40 00       	mov    $0x4033d0,%esi
  401e19:	bf 01 00 00 00       	mov    $0x1,%edi
  401e1e:	b8 00 00 00 00       	mov    $0x0,%eax
  401e23:	e8 d8 ef ff ff       	callq  400e00 <__printf_chk@plt>
  401e28:	eb 49                	jmp    401e73 <validate+0xc0>
  401e2a:	3b 3d ec 36 20 00    	cmp    0x2036ec(%rip),%edi        # 60551c <vlevel>
  401e30:	74 18                	je     401e4a <validate+0x97>
  401e32:	bf b2 33 40 00       	mov    $0x4033b2,%edi
  401e37:	e8 94 ee ff ff       	callq  400cd0 <puts@plt>
  401e3c:	89 de                	mov    %ebx,%esi
  401e3e:	bf 00 00 00 00       	mov    $0x0,%edi
  401e43:	e8 78 fd ff ff       	callq  401bc0 <notify_server>
  401e48:	eb 29                	jmp    401e73 <validate+0xc0>
  401e4a:	0f be 0d f7 42 20 00 	movsbl 0x2042f7(%rip),%ecx        # 606148 <target_prefix>
  401e51:	89 fa                	mov    %edi,%edx
  401e53:	be 18 35 40 00       	mov    $0x403518,%esi
  401e58:	bf 01 00 00 00       	mov    $0x1,%edi
  401e5d:	b8 00 00 00 00       	mov    $0x0,%eax
  401e62:	e8 99 ef ff ff       	callq  400e00 <__printf_chk@plt>
  401e67:	89 de                	mov    %ebx,%esi
  401e69:	bf 01 00 00 00       	mov    $0x1,%edi
  401e6e:	e8 4d fd ff ff       	callq  401bc0 <notify_server>
  401e73:	5b                   	pop    %rbx
  401e74:	c3                   	retq   

0000000000401e75 <fail>:
  401e75:	48 83 ec 08          	sub    $0x8,%rsp
  401e79:	83 3d a8 36 20 00 00 	cmpl   $0x0,0x2036a8(%rip)        # 605528 <is_checker>
  401e80:	74 0a                	je     401e8c <fail+0x17>
  401e82:	b8 00 00 00 00       	mov    $0x0,%eax
  401e87:	e8 ad fc ff ff       	callq  401b39 <check_fail>
  401e8c:	89 fe                	mov    %edi,%esi
  401e8e:	bf 00 00 00 00       	mov    $0x0,%edi
  401e93:	e8 28 fd ff ff       	callq  401bc0 <notify_server>
  401e98:	48 83 c4 08          	add    $0x8,%rsp
  401e9c:	c3                   	retq   

0000000000401e9d <bushandler>:
  401e9d:	48 83 ec 08          	sub    $0x8,%rsp
  401ea1:	83 3d 80 36 20 00 00 	cmpl   $0x0,0x203680(%rip)        # 605528 <is_checker>
  401ea8:	74 14                	je     401ebe <bushandler+0x21>
  401eaa:	bf e5 33 40 00       	mov    $0x4033e5,%edi
  401eaf:	e8 1c ee ff ff       	callq  400cd0 <puts@plt>
  401eb4:	b8 00 00 00 00       	mov    $0x0,%eax
  401eb9:	e8 7b fc ff ff       	callq  401b39 <check_fail>
  401ebe:	bf 50 35 40 00       	mov    $0x403550,%edi
  401ec3:	e8 08 ee ff ff       	callq  400cd0 <puts@plt>
  401ec8:	bf ef 33 40 00       	mov    $0x4033ef,%edi
  401ecd:	e8 fe ed ff ff       	callq  400cd0 <puts@plt>
  401ed2:	be 00 00 00 00       	mov    $0x0,%esi
  401ed7:	bf 00 00 00 00       	mov    $0x0,%edi
  401edc:	e8 df fc ff ff       	callq  401bc0 <notify_server>
  401ee1:	bf 01 00 00 00       	mov    $0x1,%edi
  401ee6:	e8 65 ef ff ff       	callq  400e50 <exit@plt>

0000000000401eeb <seghandler>:
  401eeb:	48 83 ec 08          	sub    $0x8,%rsp
  401eef:	83 3d 32 36 20 00 00 	cmpl   $0x0,0x203632(%rip)        # 605528 <is_checker>
  401ef6:	74 14                	je     401f0c <seghandler+0x21>
  401ef8:	bf 05 34 40 00       	mov    $0x403405,%edi
  401efd:	e8 ce ed ff ff       	callq  400cd0 <puts@plt>
  401f02:	b8 00 00 00 00       	mov    $0x0,%eax
  401f07:	e8 2d fc ff ff       	callq  401b39 <check_fail>
  401f0c:	bf 70 35 40 00       	mov    $0x403570,%edi
  401f11:	e8 ba ed ff ff       	callq  400cd0 <puts@plt>
  401f16:	bf ef 33 40 00       	mov    $0x4033ef,%edi
  401f1b:	e8 b0 ed ff ff       	callq  400cd0 <puts@plt>
  401f20:	be 00 00 00 00       	mov    $0x0,%esi
  401f25:	bf 00 00 00 00       	mov    $0x0,%edi
  401f2a:	e8 91 fc ff ff       	callq  401bc0 <notify_server>
  401f2f:	bf 01 00 00 00       	mov    $0x1,%edi
  401f34:	e8 17 ef ff ff       	callq  400e50 <exit@plt>

0000000000401f39 <illegalhandler>:
  401f39:	48 83 ec 08          	sub    $0x8,%rsp
  401f3d:	83 3d e4 35 20 00 00 	cmpl   $0x0,0x2035e4(%rip)        # 605528 <is_checker>
  401f44:	74 14                	je     401f5a <illegalhandler+0x21>
  401f46:	bf 18 34 40 00       	mov    $0x403418,%edi
  401f4b:	e8 80 ed ff ff       	callq  400cd0 <puts@plt>
  401f50:	b8 00 00 00 00       	mov    $0x0,%eax
  401f55:	e8 df fb ff ff       	callq  401b39 <check_fail>
  401f5a:	bf 98 35 40 00       	mov    $0x403598,%edi
  401f5f:	e8 6c ed ff ff       	callq  400cd0 <puts@plt>
  401f64:	bf ef 33 40 00       	mov    $0x4033ef,%edi
  401f69:	e8 62 ed ff ff       	callq  400cd0 <puts@plt>
  401f6e:	be 00 00 00 00       	mov    $0x0,%esi
  401f73:	bf 00 00 00 00       	mov    $0x0,%edi
  401f78:	e8 43 fc ff ff       	callq  401bc0 <notify_server>
  401f7d:	bf 01 00 00 00       	mov    $0x1,%edi
  401f82:	e8 c9 ee ff ff       	callq  400e50 <exit@plt>

0000000000401f87 <sigalrmhandler>:
  401f87:	48 83 ec 08          	sub    $0x8,%rsp
  401f8b:	83 3d 96 35 20 00 00 	cmpl   $0x0,0x203596(%rip)        # 605528 <is_checker>
  401f92:	74 14                	je     401fa8 <sigalrmhandler+0x21>
  401f94:	bf 2c 34 40 00       	mov    $0x40342c,%edi
  401f99:	e8 32 ed ff ff       	callq  400cd0 <puts@plt>
  401f9e:	b8 00 00 00 00       	mov    $0x0,%eax
  401fa3:	e8 91 fb ff ff       	callq  401b39 <check_fail>
  401fa8:	ba 05 00 00 00       	mov    $0x5,%edx
  401fad:	be c8 35 40 00       	mov    $0x4035c8,%esi
  401fb2:	bf 01 00 00 00       	mov    $0x1,%edi
  401fb7:	b8 00 00 00 00       	mov    $0x0,%eax
  401fbc:	e8 3f ee ff ff       	callq  400e00 <__printf_chk@plt>
  401fc1:	be 00 00 00 00       	mov    $0x0,%esi
  401fc6:	bf 00 00 00 00       	mov    $0x0,%edi
  401fcb:	e8 f0 fb ff ff       	callq  401bc0 <notify_server>
  401fd0:	bf 01 00 00 00       	mov    $0x1,%edi
  401fd5:	e8 76 ee ff ff       	callq  400e50 <exit@plt>

0000000000401fda <launch>:
  401fda:	55                   	push   %rbp
  401fdb:	48 89 e5             	mov    %rsp,%rbp
  401fde:	48 83 ec 10          	sub    $0x10,%rsp
  401fe2:	48 89 fa             	mov    %rdi,%rdx
  401fe5:	64 48 8b 04 25 28 00 	mov    %fs:0x28,%rax
  401fec:	00 00 
  401fee:	48 89 45 f8          	mov    %rax,-0x8(%rbp)
  401ff2:	31 c0                	xor    %eax,%eax
  401ff4:	48 8d 47 1e          	lea    0x1e(%rdi),%rax
  401ff8:	48 83 e0 f0          	and    $0xfffffffffffffff0,%rax
  401ffc:	48 29 c4             	sub    %rax,%rsp
  401fff:	48 8d 7c 24 0f       	lea    0xf(%rsp),%rdi
  402004:	48 83 e7 f0          	and    $0xfffffffffffffff0,%rdi
  402008:	be f4 00 00 00       	mov    $0xf4,%esi
  40200d:	e8 fe ec ff ff       	callq  400d10 <memset@plt>
  402012:	48 8b 05 a7 34 20 00 	mov    0x2034a7(%rip),%rax        # 6054c0 <stdin@@GLIBC_2.2.5>
  402019:	48 39 05 f0 34 20 00 	cmp    %rax,0x2034f0(%rip)        # 605510 <infile>
  402020:	75 14                	jne    402036 <launch+0x5c>
  402022:	be 34 34 40 00       	mov    $0x403434,%esi
  402027:	bf 01 00 00 00       	mov    $0x1,%edi
  40202c:	b8 00 00 00 00       	mov    $0x0,%eax
  402031:	e8 ca ed ff ff       	callq  400e00 <__printf_chk@plt>
  402036:	c7 05 dc 34 20 00 00 	movl   $0x0,0x2034dc(%rip)        # 60551c <vlevel>
  40203d:	00 00 00 
  402040:	b8 00 00 00 00       	mov    $0x0,%eax
  402045:	e8 5b fa ff ff       	callq  401aa5 <test>
  40204a:	83 3d d7 34 20 00 00 	cmpl   $0x0,0x2034d7(%rip)        # 605528 <is_checker>
  402051:	74 14                	je     402067 <launch+0x8d>
  402053:	bf 41 34 40 00       	mov    $0x403441,%edi
  402058:	e8 73 ec ff ff       	callq  400cd0 <puts@plt>
  40205d:	b8 00 00 00 00       	mov    $0x0,%eax
  402062:	e8 d2 fa ff ff       	callq  401b39 <check_fail>
  402067:	bf 4c 34 40 00       	mov    $0x40344c,%edi
  40206c:	e8 5f ec ff ff       	callq  400cd0 <puts@plt>
  402071:	48 8b 45 f8          	mov    -0x8(%rbp),%rax
  402075:	64 48 33 04 25 28 00 	xor    %fs:0x28,%rax
  40207c:	00 00 
  40207e:	74 05                	je     402085 <launch+0xab>
  402080:	e8 6b ec ff ff       	callq  400cf0 <__stack_chk_fail@plt>
  402085:	c9                   	leaveq 
  402086:	c3                   	retq   

0000000000402087 <stable_launch>:
  402087:	53                   	push   %rbx
  402088:	48 89 3d 79 34 20 00 	mov    %rdi,0x203479(%rip)        # 605508 <global_offset>
  40208f:	41 b9 00 00 00 00    	mov    $0x0,%r9d
  402095:	41 b8 00 00 00 00    	mov    $0x0,%r8d
  40209b:	b9 32 01 00 00       	mov    $0x132,%ecx
  4020a0:	ba 07 00 00 00       	mov    $0x7,%edx
  4020a5:	be 00 00 10 00       	mov    $0x100000,%esi
  4020aa:	bf 00 60 58 55       	mov    $0x55586000,%edi
  4020af:	e8 4c ec ff ff       	callq  400d00 <mmap@plt>
  4020b4:	48 89 c3             	mov    %rax,%rbx
  4020b7:	48 3d 00 60 58 55    	cmp    $0x55586000,%rax
  4020bd:	74 37                	je     4020f6 <stable_launch+0x6f>
  4020bf:	be 00 00 10 00       	mov    $0x100000,%esi
  4020c4:	48 89 c7             	mov    %rax,%rdi
  4020c7:	e8 24 ed ff ff       	callq  400df0 <munmap@plt>
  4020cc:	b9 00 60 58 55       	mov    $0x55586000,%ecx
  4020d1:	ba 00 36 40 00       	mov    $0x403600,%edx
  4020d6:	be 01 00 00 00       	mov    $0x1,%esi
  4020db:	48 8b 3d fe 33 20 00 	mov    0x2033fe(%rip),%rdi        # 6054e0 <stderr@@GLIBC_2.2.5>
  4020e2:	b8 00 00 00 00       	mov    $0x0,%eax
  4020e7:	e8 84 ed ff ff       	callq  400e70 <__fprintf_chk@plt>
  4020ec:	bf 01 00 00 00       	mov    $0x1,%edi
  4020f1:	e8 5a ed ff ff       	callq  400e50 <exit@plt>
  4020f6:	48 8d 90 f8 ff 0f 00 	lea    0xffff8(%rax),%rdx
  4020fd:	48 89 15 4c 40 20 00 	mov    %rdx,0x20404c(%rip)        # 606150 <stack_top>
  402104:	48 89 e0             	mov    %rsp,%rax
  402107:	48 89 d4             	mov    %rdx,%rsp
  40210a:	48 89 c2             	mov    %rax,%rdx
  40210d:	48 89 15 ec 33 20 00 	mov    %rdx,0x2033ec(%rip)        # 605500 <global_save_stack>
  402114:	48 8b 3d ed 33 20 00 	mov    0x2033ed(%rip),%rdi        # 605508 <global_offset>
  40211b:	e8 ba fe ff ff       	callq  401fda <launch>
  402120:	48 8b 05 d9 33 20 00 	mov    0x2033d9(%rip),%rax        # 605500 <global_save_stack>
  402127:	48 89 c4             	mov    %rax,%rsp
  40212a:	be 00 00 10 00       	mov    $0x100000,%esi
  40212f:	48 89 df             	mov    %rbx,%rdi
  402132:	e8 b9 ec ff ff       	callq  400df0 <munmap@plt>
  402137:	5b                   	pop    %rbx
  402138:	c3                   	retq   

0000000000402139 <rio_readinitb>:
  402139:	89 37                	mov    %esi,(%rdi)
  40213b:	c7 47 04 00 00 00 00 	movl   $0x0,0x4(%rdi)
  402142:	48 8d 47 10          	lea    0x10(%rdi),%rax
  402146:	48 89 47 08          	mov    %rax,0x8(%rdi)
  40214a:	c3                   	retq   

000000000040214b <sigalrm_handler>:
  40214b:	48 83 ec 08          	sub    $0x8,%rsp
  40214f:	b9 00 00 00 00       	mov    $0x0,%ecx
  402154:	ba 40 36 40 00       	mov    $0x403640,%edx
  402159:	be 01 00 00 00       	mov    $0x1,%esi
  40215e:	48 8b 3d 7b 33 20 00 	mov    0x20337b(%rip),%rdi        # 6054e0 <stderr@@GLIBC_2.2.5>
  402165:	b8 00 00 00 00       	mov    $0x0,%eax
  40216a:	e8 01 ed ff ff       	callq  400e70 <__fprintf_chk@plt>
  40216f:	bf 01 00 00 00       	mov    $0x1,%edi
  402174:	e8 d7 ec ff ff       	callq  400e50 <exit@plt>

0000000000402179 <rio_writen>:
  402179:	41 55                	push   %r13
  40217b:	41 54                	push   %r12
  40217d:	55                   	push   %rbp
  40217e:	53                   	push   %rbx
  40217f:	48 83 ec 08          	sub    $0x8,%rsp
  402183:	41 89 fc             	mov    %edi,%r12d
  402186:	48 89 f5             	mov    %rsi,%rbp
  402189:	49 89 d5             	mov    %rdx,%r13
  40218c:	48 89 d3             	mov    %rdx,%rbx
  40218f:	eb 28                	jmp    4021b9 <rio_writen+0x40>
  402191:	48 89 da             	mov    %rbx,%rdx
  402194:	48 89 ee             	mov    %rbp,%rsi
  402197:	44 89 e7             	mov    %r12d,%edi
  40219a:	e8 41 eb ff ff       	callq  400ce0 <write@plt>
  40219f:	48 85 c0             	test   %rax,%rax
  4021a2:	7f 0f                	jg     4021b3 <rio_writen+0x3a>
  4021a4:	e8 e7 ea ff ff       	callq  400c90 <__errno_location@plt>
  4021a9:	83 38 04             	cmpl   $0x4,(%rax)
  4021ac:	75 15                	jne    4021c3 <rio_writen+0x4a>
  4021ae:	b8 00 00 00 00       	mov    $0x0,%eax
  4021b3:	48 29 c3             	sub    %rax,%rbx
  4021b6:	48 01 c5             	add    %rax,%rbp
  4021b9:	48 85 db             	test   %rbx,%rbx
  4021bc:	75 d3                	jne    402191 <rio_writen+0x18>
  4021be:	4c 89 e8             	mov    %r13,%rax
  4021c1:	eb 07                	jmp    4021ca <rio_writen+0x51>
  4021c3:	48 c7 c0 ff ff ff ff 	mov    $0xffffffffffffffff,%rax
  4021ca:	48 83 c4 08          	add    $0x8,%rsp
  4021ce:	5b                   	pop    %rbx
  4021cf:	5d                   	pop    %rbp
  4021d0:	41 5c                	pop    %r12
  4021d2:	41 5d                	pop    %r13
  4021d4:	c3                   	retq   

00000000004021d5 <rio_read>:
  4021d5:	41 55                	push   %r13
  4021d7:	41 54                	push   %r12
  4021d9:	55                   	push   %rbp
  4021da:	53                   	push   %rbx
  4021db:	48 83 ec 08          	sub    $0x8,%rsp
  4021df:	48 89 fb             	mov    %rdi,%rbx
  4021e2:	49 89 f5             	mov    %rsi,%r13
  4021e5:	49 89 d4             	mov    %rdx,%r12
  4021e8:	eb 2e                	jmp    402218 <rio_read+0x43>
  4021ea:	48 8d 6b 10          	lea    0x10(%rbx),%rbp
  4021ee:	8b 3b                	mov    (%rbx),%edi
  4021f0:	ba 00 20 00 00       	mov    $0x2000,%edx
  4021f5:	48 89 ee             	mov    %rbp,%rsi
  4021f8:	e8 43 eb ff ff       	callq  400d40 <read@plt>
  4021fd:	89 43 04             	mov    %eax,0x4(%rbx)
  402200:	85 c0                	test   %eax,%eax
  402202:	79 0c                	jns    402210 <rio_read+0x3b>
  402204:	e8 87 ea ff ff       	callq  400c90 <__errno_location@plt>
  402209:	83 38 04             	cmpl   $0x4,(%rax)
  40220c:	74 0a                	je     402218 <rio_read+0x43>
  40220e:	eb 37                	jmp    402247 <rio_read+0x72>
  402210:	85 c0                	test   %eax,%eax
  402212:	74 3c                	je     402250 <rio_read+0x7b>
  402214:	48 89 6b 08          	mov    %rbp,0x8(%rbx)
  402218:	8b 6b 04             	mov    0x4(%rbx),%ebp
  40221b:	85 ed                	test   %ebp,%ebp
  40221d:	7e cb                	jle    4021ea <rio_read+0x15>
  40221f:	89 e8                	mov    %ebp,%eax
  402221:	49 39 c4             	cmp    %rax,%r12
  402224:	77 03                	ja     402229 <rio_read+0x54>
  402226:	44 89 e5             	mov    %r12d,%ebp
  402229:	4c 63 e5             	movslq %ebp,%r12
  40222c:	48 8b 73 08          	mov    0x8(%rbx),%rsi
  402230:	4c 89 e2             	mov    %r12,%rdx
  402233:	4c 89 ef             	mov    %r13,%rdi
  402236:	e8 65 eb ff ff       	callq  400da0 <memcpy@plt>
  40223b:	4c 01 63 08          	add    %r12,0x8(%rbx)
  40223f:	29 6b 04             	sub    %ebp,0x4(%rbx)
  402242:	4c 89 e0             	mov    %r12,%rax
  402245:	eb 0e                	jmp    402255 <rio_read+0x80>
  402247:	48 c7 c0 ff ff ff ff 	mov    $0xffffffffffffffff,%rax
  40224e:	eb 05                	jmp    402255 <rio_read+0x80>
  402250:	b8 00 00 00 00       	mov    $0x0,%eax
  402255:	48 83 c4 08          	add    $0x8,%rsp
  402259:	5b                   	pop    %rbx
  40225a:	5d                   	pop    %rbp
  40225b:	41 5c                	pop    %r12
  40225d:	41 5d                	pop    %r13
  40225f:	c3                   	retq   

0000000000402260 <rio_readlineb>:
  402260:	41 55                	push   %r13
  402262:	41 54                	push   %r12
  402264:	55                   	push   %rbp
  402265:	53                   	push   %rbx
  402266:	48 83 ec 18          	sub    $0x18,%rsp
  40226a:	49 89 fd             	mov    %rdi,%r13
  40226d:	48 89 f5             	mov    %rsi,%rbp
  402270:	49 89 d4             	mov    %rdx,%r12
  402273:	64 48 8b 04 25 28 00 	mov    %fs:0x28,%rax
  40227a:	00 00 
  40227c:	48 89 44 24 08       	mov    %rax,0x8(%rsp)
  402281:	31 c0                	xor    %eax,%eax
  402283:	bb 01 00 00 00       	mov    $0x1,%ebx
  402288:	eb 3f                	jmp    4022c9 <rio_readlineb+0x69>
  40228a:	ba 01 00 00 00       	mov    $0x1,%edx
  40228f:	48 8d 74 24 07       	lea    0x7(%rsp),%rsi
  402294:	4c 89 ef             	mov    %r13,%rdi
  402297:	e8 39 ff ff ff       	callq  4021d5 <rio_read>
  40229c:	83 f8 01             	cmp    $0x1,%eax
  40229f:	75 15                	jne    4022b6 <rio_readlineb+0x56>
  4022a1:	48 8d 45 01          	lea    0x1(%rbp),%rax
  4022a5:	0f b6 54 24 07       	movzbl 0x7(%rsp),%edx
  4022aa:	88 55 00             	mov    %dl,0x0(%rbp)
  4022ad:	80 7c 24 07 0a       	cmpb   $0xa,0x7(%rsp)
  4022b2:	75 0e                	jne    4022c2 <rio_readlineb+0x62>
  4022b4:	eb 1a                	jmp    4022d0 <rio_readlineb+0x70>
  4022b6:	85 c0                	test   %eax,%eax
  4022b8:	75 22                	jne    4022dc <rio_readlineb+0x7c>
  4022ba:	48 83 fb 01          	cmp    $0x1,%rbx
  4022be:	75 13                	jne    4022d3 <rio_readlineb+0x73>
  4022c0:	eb 23                	jmp    4022e5 <rio_readlineb+0x85>
  4022c2:	48 83 c3 01          	add    $0x1,%rbx
  4022c6:	48 89 c5             	mov    %rax,%rbp
  4022c9:	4c 39 e3             	cmp    %r12,%rbx
  4022cc:	72 bc                	jb     40228a <rio_readlineb+0x2a>
  4022ce:	eb 03                	jmp    4022d3 <rio_readlineb+0x73>
  4022d0:	48 89 c5             	mov    %rax,%rbp
  4022d3:	c6 45 00 00          	movb   $0x0,0x0(%rbp)
  4022d7:	48 89 d8             	mov    %rbx,%rax
  4022da:	eb 0e                	jmp    4022ea <rio_readlineb+0x8a>
  4022dc:	48 c7 c0 ff ff ff ff 	mov    $0xffffffffffffffff,%rax
  4022e3:	eb 05                	jmp    4022ea <rio_readlineb+0x8a>
  4022e5:	b8 00 00 00 00       	mov    $0x0,%eax
  4022ea:	48 8b 4c 24 08       	mov    0x8(%rsp),%rcx
  4022ef:	64 48 33 0c 25 28 00 	xor    %fs:0x28,%rcx
  4022f6:	00 00 
  4022f8:	74 05                	je     4022ff <rio_readlineb+0x9f>
  4022fa:	e8 f1 e9 ff ff       	callq  400cf0 <__stack_chk_fail@plt>
  4022ff:	48 83 c4 18          	add    $0x18,%rsp
  402303:	5b                   	pop    %rbx
  402304:	5d                   	pop    %rbp
  402305:	41 5c                	pop    %r12
  402307:	41 5d                	pop    %r13
  402309:	c3                   	retq   

000000000040230a <urlencode>:
  40230a:	41 54                	push   %r12
  40230c:	55                   	push   %rbp
  40230d:	53                   	push   %rbx
  40230e:	48 83 ec 10          	sub    $0x10,%rsp
  402312:	48 89 fb             	mov    %rdi,%rbx
  402315:	48 89 f5             	mov    %rsi,%rbp
  402318:	64 48 8b 04 25 28 00 	mov    %fs:0x28,%rax
  40231f:	00 00 
  402321:	48 89 44 24 08       	mov    %rax,0x8(%rsp)
  402326:	31 c0                	xor    %eax,%eax
  402328:	48 c7 c1 ff ff ff ff 	mov    $0xffffffffffffffff,%rcx
  40232f:	f2 ae                	repnz scas %es:(%rdi),%al
  402331:	48 f7 d1             	not    %rcx
  402334:	8d 41 ff             	lea    -0x1(%rcx),%eax
  402337:	e9 aa 00 00 00       	jmpq   4023e6 <urlencode+0xdc>
  40233c:	44 0f b6 03          	movzbl (%rbx),%r8d
  402340:	41 80 f8 2a          	cmp    $0x2a,%r8b
  402344:	0f 94 c2             	sete   %dl
  402347:	41 80 f8 2d          	cmp    $0x2d,%r8b
  40234b:	0f 94 c0             	sete   %al
  40234e:	08 c2                	or     %al,%dl
  402350:	75 24                	jne    402376 <urlencode+0x6c>
  402352:	41 80 f8 2e          	cmp    $0x2e,%r8b
  402356:	74 1e                	je     402376 <urlencode+0x6c>
  402358:	41 80 f8 5f          	cmp    $0x5f,%r8b
  40235c:	74 18                	je     402376 <urlencode+0x6c>
  40235e:	41 8d 40 d0          	lea    -0x30(%r8),%eax
  402362:	3c 09                	cmp    $0x9,%al
  402364:	76 10                	jbe    402376 <urlencode+0x6c>
  402366:	41 8d 40 bf          	lea    -0x41(%r8),%eax
  40236a:	3c 19                	cmp    $0x19,%al
  40236c:	76 08                	jbe    402376 <urlencode+0x6c>
  40236e:	41 8d 40 9f          	lea    -0x61(%r8),%eax
  402372:	3c 19                	cmp    $0x19,%al
  402374:	77 0a                	ja     402380 <urlencode+0x76>
  402376:	44 88 45 00          	mov    %r8b,0x0(%rbp)
  40237a:	48 8d 6d 01          	lea    0x1(%rbp),%rbp
  40237e:	eb 5f                	jmp    4023df <urlencode+0xd5>
  402380:	41 80 f8 20          	cmp    $0x20,%r8b
  402384:	75 0a                	jne    402390 <urlencode+0x86>
  402386:	c6 45 00 2b          	movb   $0x2b,0x0(%rbp)
  40238a:	48 8d 6d 01          	lea    0x1(%rbp),%rbp
  40238e:	eb 4f                	jmp    4023df <urlencode+0xd5>
  402390:	41 8d 40 e0          	lea    -0x20(%r8),%eax
  402394:	3c 5f                	cmp    $0x5f,%al
  402396:	0f 96 c2             	setbe  %dl
  402399:	41 80 f8 09          	cmp    $0x9,%r8b
  40239d:	0f 94 c0             	sete   %al
  4023a0:	08 c2                	or     %al,%dl
  4023a2:	74 50                	je     4023f4 <urlencode+0xea>
  4023a4:	45 0f b6 c0          	movzbl %r8b,%r8d
  4023a8:	b9 d8 36 40 00       	mov    $0x4036d8,%ecx
  4023ad:	ba 08 00 00 00       	mov    $0x8,%edx
  4023b2:	be 01 00 00 00       	mov    $0x1,%esi
  4023b7:	48 89 e7             	mov    %rsp,%rdi
  4023ba:	b8 00 00 00 00       	mov    $0x0,%eax
  4023bf:	e8 bc ea ff ff       	callq  400e80 <__sprintf_chk@plt>
  4023c4:	0f b6 04 24          	movzbl (%rsp),%eax
  4023c8:	88 45 00             	mov    %al,0x0(%rbp)
  4023cb:	0f b6 44 24 01       	movzbl 0x1(%rsp),%eax
  4023d0:	88 45 01             	mov    %al,0x1(%rbp)
  4023d3:	0f b6 44 24 02       	movzbl 0x2(%rsp),%eax
  4023d8:	88 45 02             	mov    %al,0x2(%rbp)
  4023db:	48 8d 6d 03          	lea    0x3(%rbp),%rbp
  4023df:	48 83 c3 01          	add    $0x1,%rbx
  4023e3:	44 89 e0             	mov    %r12d,%eax
  4023e6:	44 8d 60 ff          	lea    -0x1(%rax),%r12d
  4023ea:	85 c0                	test   %eax,%eax
  4023ec:	0f 85 4a ff ff ff    	jne    40233c <urlencode+0x32>
  4023f2:	eb 05                	jmp    4023f9 <urlencode+0xef>
  4023f4:	b8 ff ff ff ff       	mov    $0xffffffff,%eax
  4023f9:	48 8b 74 24 08       	mov    0x8(%rsp),%rsi
  4023fe:	64 48 33 34 25 28 00 	xor    %fs:0x28,%rsi
  402405:	00 00 
  402407:	74 05                	je     40240e <urlencode+0x104>
  402409:	e8 e2 e8 ff ff       	callq  400cf0 <__stack_chk_fail@plt>
  40240e:	48 83 c4 10          	add    $0x10,%rsp
  402412:	5b                   	pop    %rbx
  402413:	5d                   	pop    %rbp
  402414:	41 5c                	pop    %r12
  402416:	c3                   	retq   

0000000000402417 <submitr>:
  402417:	41 57                	push   %r15
  402419:	41 56                	push   %r14
  40241b:	41 55                	push   %r13
  40241d:	41 54                	push   %r12
  40241f:	55                   	push   %rbp
  402420:	53                   	push   %rbx
  402421:	48 81 ec 58 a0 00 00 	sub    $0xa058,%rsp
  402428:	49 89 fc             	mov    %rdi,%r12
  40242b:	89 74 24 04          	mov    %esi,0x4(%rsp)
  40242f:	49 89 d7             	mov    %rdx,%r15
  402432:	49 89 ce             	mov    %rcx,%r14
  402435:	4c 89 44 24 08       	mov    %r8,0x8(%rsp)
  40243a:	4d 89 cd             	mov    %r9,%r13
  40243d:	48 8b 9c 24 90 a0 00 	mov    0xa090(%rsp),%rbx
  402444:	00 
  402445:	64 48 8b 04 25 28 00 	mov    %fs:0x28,%rax
  40244c:	00 00 
  40244e:	48 89 84 24 48 a0 00 	mov    %rax,0xa048(%rsp)
  402455:	00 
  402456:	31 c0                	xor    %eax,%eax
  402458:	c7 44 24 1c 00 00 00 	movl   $0x0,0x1c(%rsp)
  40245f:	00 
  402460:	ba 00 00 00 00       	mov    $0x0,%edx
  402465:	be 01 00 00 00       	mov    $0x1,%esi
  40246a:	bf 02 00 00 00       	mov    $0x2,%edi
  40246f:	e8 1c ea ff ff       	callq  400e90 <socket@plt>
  402474:	85 c0                	test   %eax,%eax
  402476:	79 4e                	jns    4024c6 <submitr+0xaf>
  402478:	48 b8 45 72 72 6f 72 	movabs $0x43203a726f727245,%rax
  40247f:	3a 20 43 
  402482:	48 89 03             	mov    %rax,(%rbx)
  402485:	48 b8 6c 69 65 6e 74 	movabs $0x6e7520746e65696c,%rax
  40248c:	20 75 6e 
  40248f:	48 89 43 08          	mov    %rax,0x8(%rbx)
  402493:	48 b8 61 62 6c 65 20 	movabs $0x206f7420656c6261,%rax
  40249a:	74 6f 20 
  40249d:	48 89 43 10          	mov    %rax,0x10(%rbx)
  4024a1:	48 b8 63 72 65 61 74 	movabs $0x7320657461657263,%rax
  4024a8:	65 20 73 
  4024ab:	48 89 43 18          	mov    %rax,0x18(%rbx)
  4024af:	c7 43 20 6f 63 6b 65 	movl   $0x656b636f,0x20(%rbx)
  4024b6:	66 c7 43 24 74 00    	movw   $0x74,0x24(%rbx)
  4024bc:	b8 ff ff ff ff       	mov    $0xffffffff,%eax
  4024c1:	e9 97 06 00 00       	jmpq   402b5d <submitr+0x746>
  4024c6:	89 c5                	mov    %eax,%ebp
  4024c8:	4c 89 e7             	mov    %r12,%rdi
  4024cb:	e8 a0 e8 ff ff       	callq  400d70 <gethostbyname@plt>
  4024d0:	48 85 c0             	test   %rax,%rax
  4024d3:	75 67                	jne    40253c <submitr+0x125>
  4024d5:	48 b8 45 72 72 6f 72 	movabs $0x44203a726f727245,%rax
  4024dc:	3a 20 44 
  4024df:	48 89 03             	mov    %rax,(%rbx)
  4024e2:	48 b8 4e 53 20 69 73 	movabs $0x6e7520736920534e,%rax
  4024e9:	20 75 6e 
  4024ec:	48 89 43 08          	mov    %rax,0x8(%rbx)
  4024f0:	48 b8 61 62 6c 65 20 	movabs $0x206f7420656c6261,%rax
  4024f7:	74 6f 20 
  4024fa:	48 89 43 10          	mov    %rax,0x10(%rbx)
  4024fe:	48 b8 72 65 73 6f 6c 	movabs $0x2065766c6f736572,%rax
  402505:	76 65 20 
  402508:	48 89 43 18          	mov    %rax,0x18(%rbx)
  40250c:	48 b8 73 65 72 76 65 	movabs $0x6120726576726573,%rax
  402513:	72 20 61 
  402516:	48 89 43 20          	mov    %rax,0x20(%rbx)
  40251a:	c7 43 28 64 64 72 65 	movl   $0x65726464,0x28(%rbx)
  402521:	66 c7 43 2c 73 73    	movw   $0x7373,0x2c(%rbx)
  402527:	c6 43 2e 00          	movb   $0x0,0x2e(%rbx)
  40252b:	89 ef                	mov    %ebp,%edi
  40252d:	e8 fe e7 ff ff       	callq  400d30 <close@plt>
  402532:	b8 ff ff ff ff       	mov    $0xffffffff,%eax
  402537:	e9 21 06 00 00       	jmpq   402b5d <submitr+0x746>
  40253c:	48 c7 44 24 20 00 00 	movq   $0x0,0x20(%rsp)
  402543:	00 00 
  402545:	48 c7 44 24 28 00 00 	movq   $0x0,0x28(%rsp)
  40254c:	00 00 
  40254e:	66 c7 44 24 20 02 00 	movw   $0x2,0x20(%rsp)
  402555:	48 63 50 14          	movslq 0x14(%rax),%rdx
  402559:	48 8b 40 18          	mov    0x18(%rax),%rax
  40255d:	48 8b 30             	mov    (%rax),%rsi
  402560:	48 8d 7c 24 24       	lea    0x24(%rsp),%rdi
  402565:	b9 0c 00 00 00       	mov    $0xc,%ecx
  40256a:	e8 11 e8 ff ff       	callq  400d80 <__memmove_chk@plt>
  40256f:	0f b7 44 24 04       	movzwl 0x4(%rsp),%eax
  402574:	66 c1 c8 08          	ror    $0x8,%ax
  402578:	66 89 44 24 22       	mov    %ax,0x22(%rsp)
  40257d:	ba 10 00 00 00       	mov    $0x10,%edx
  402582:	48 8d 74 24 20       	lea    0x20(%rsp),%rsi
  402587:	89 ef                	mov    %ebp,%edi
  402589:	e8 d2 e8 ff ff       	callq  400e60 <connect@plt>
  40258e:	85 c0                	test   %eax,%eax
  402590:	79 59                	jns    4025eb <submitr+0x1d4>
  402592:	48 b8 45 72 72 6f 72 	movabs $0x55203a726f727245,%rax
  402599:	3a 20 55 
  40259c:	48 89 03             	mov    %rax,(%rbx)
  40259f:	48 b8 6e 61 62 6c 65 	movabs $0x6f7420656c62616e,%rax
  4025a6:	20 74 6f 
  4025a9:	48 89 43 08          	mov    %rax,0x8(%rbx)
  4025ad:	48 b8 20 63 6f 6e 6e 	movabs $0x7463656e6e6f6320,%rax
  4025b4:	65 63 74 
  4025b7:	48 89 43 10          	mov    %rax,0x10(%rbx)
  4025bb:	48 b8 20 74 6f 20 74 	movabs $0x20656874206f7420,%rax
  4025c2:	68 65 20 
  4025c5:	48 89 43 18          	mov    %rax,0x18(%rbx)
  4025c9:	c7 43 20 73 65 72 76 	movl   $0x76726573,0x20(%rbx)
  4025d0:	66 c7 43 24 65 72    	movw   $0x7265,0x24(%rbx)
  4025d6:	c6 43 26 00          	movb   $0x0,0x26(%rbx)
  4025da:	89 ef                	mov    %ebp,%edi
  4025dc:	e8 4f e7 ff ff       	callq  400d30 <close@plt>
  4025e1:	b8 ff ff ff ff       	mov    $0xffffffff,%eax
  4025e6:	e9 72 05 00 00       	jmpq   402b5d <submitr+0x746>
  4025eb:	48 c7 c6 ff ff ff ff 	mov    $0xffffffffffffffff,%rsi
  4025f2:	b8 00 00 00 00       	mov    $0x0,%eax
  4025f7:	48 89 f1             	mov    %rsi,%rcx
  4025fa:	4c 89 ef             	mov    %r13,%rdi
  4025fd:	f2 ae                	repnz scas %es:(%rdi),%al
  4025ff:	48 f7 d1             	not    %rcx
  402602:	48 89 ca             	mov    %rcx,%rdx
  402605:	48 89 f1             	mov    %rsi,%rcx
  402608:	4c 89 ff             	mov    %r15,%rdi
  40260b:	f2 ae                	repnz scas %es:(%rdi),%al
  40260d:	48 f7 d1             	not    %rcx
  402610:	49 89 c8             	mov    %rcx,%r8
  402613:	48 89 f1             	mov    %rsi,%rcx
  402616:	4c 89 f7             	mov    %r14,%rdi
  402619:	f2 ae                	repnz scas %es:(%rdi),%al
  40261b:	48 f7 d1             	not    %rcx
  40261e:	4d 8d 44 08 fe       	lea    -0x2(%r8,%rcx,1),%r8
  402623:	48 89 f1             	mov    %rsi,%rcx
  402626:	48 8b 7c 24 08       	mov    0x8(%rsp),%rdi
  40262b:	f2 ae                	repnz scas %es:(%rdi),%al
  40262d:	48 89 c8             	mov    %rcx,%rax
  402630:	48 f7 d0             	not    %rax
  402633:	49 8d 4c 00 ff       	lea    -0x1(%r8,%rax,1),%rcx
  402638:	48 8d 44 52 fd       	lea    -0x3(%rdx,%rdx,2),%rax
  40263d:	48 8d 84 01 80 00 00 	lea    0x80(%rcx,%rax,1),%rax
  402644:	00 
  402645:	48 3d 00 20 00 00    	cmp    $0x2000,%rax
  40264b:	76 72                	jbe    4026bf <submitr+0x2a8>
  40264d:	48 b8 45 72 72 6f 72 	movabs $0x52203a726f727245,%rax
  402654:	3a 20 52 
  402657:	48 89 03             	mov    %rax,(%rbx)
  40265a:	48 b8 65 73 75 6c 74 	movabs $0x747320746c757365,%rax
  402661:	20 73 74 
  402664:	48 89 43 08          	mov    %rax,0x8(%rbx)
  402668:	48 b8 72 69 6e 67 20 	movabs $0x6f6f7420676e6972,%rax
  40266f:	74 6f 6f 
  402672:	48 89 43 10          	mov    %rax,0x10(%rbx)
  402676:	48 b8 20 6c 61 72 67 	movabs $0x202e656772616c20,%rax
  40267d:	65 2e 20 
  402680:	48 89 43 18          	mov    %rax,0x18(%rbx)
  402684:	48 b8 49 6e 63 72 65 	movabs $0x6573616572636e49,%rax
  40268b:	61 73 65 
  40268e:	48 89 43 20          	mov    %rax,0x20(%rbx)
  402692:	48 b8 20 53 55 42 4d 	movabs $0x5254494d42555320,%rax
  402699:	49 54 52 
  40269c:	48 89 43 28          	mov    %rax,0x28(%rbx)
  4026a0:	48 b8 5f 4d 41 58 42 	movabs $0x46554258414d5f,%rax
  4026a7:	55 46 00 
  4026aa:	48 89 43 30          	mov    %rax,0x30(%rbx)
  4026ae:	89 ef                	mov    %ebp,%edi
  4026b0:	e8 7b e6 ff ff       	callq  400d30 <close@plt>
  4026b5:	b8 ff ff ff ff       	mov    $0xffffffff,%eax
  4026ba:	e9 9e 04 00 00       	jmpq   402b5d <submitr+0x746>
  4026bf:	48 8d b4 24 40 40 00 	lea    0x4040(%rsp),%rsi
  4026c6:	00 
  4026c7:	b9 00 04 00 00       	mov    $0x400,%ecx
  4026cc:	b8 00 00 00 00       	mov    $0x0,%eax
  4026d1:	48 89 f7             	mov    %rsi,%rdi
  4026d4:	f3 48 ab             	rep stos %rax,%es:(%rdi)
  4026d7:	4c 89 ef             	mov    %r13,%rdi
  4026da:	e8 2b fc ff ff       	callq  40230a <urlencode>
  4026df:	85 c0                	test   %eax,%eax
  4026e1:	0f 89 8a 00 00 00    	jns    402771 <submitr+0x35a>
  4026e7:	48 b8 45 72 72 6f 72 	movabs $0x52203a726f727245,%rax
  4026ee:	3a 20 52 
  4026f1:	48 89 03             	mov    %rax,(%rbx)
  4026f4:	48 b8 65 73 75 6c 74 	movabs $0x747320746c757365,%rax
  4026fb:	20 73 74 
  4026fe:	48 89 43 08          	mov    %rax,0x8(%rbx)
  402702:	48 b8 72 69 6e 67 20 	movabs $0x6e6f6320676e6972,%rax
  402709:	63 6f 6e 
  40270c:	48 89 43 10          	mov    %rax,0x10(%rbx)
  402710:	48 b8 74 61 69 6e 73 	movabs $0x6e6120736e696174,%rax
  402717:	20 61 6e 
  40271a:	48 89 43 18          	mov    %rax,0x18(%rbx)
  40271e:	48 b8 20 69 6c 6c 65 	movabs $0x6c6167656c6c6920,%rax
  402725:	67 61 6c 
  402728:	48 89 43 20          	mov    %rax,0x20(%rbx)
  40272c:	48 b8 20 6f 72 20 75 	movabs $0x72706e7520726f20,%rax
  402733:	6e 70 72 
  402736:	48 89 43 28          	mov    %rax,0x28(%rbx)
  40273a:	48 b8 69 6e 74 61 62 	movabs $0x20656c6261746e69,%rax
  402741:	6c 65 20 
  402744:	48 89 43 30          	mov    %rax,0x30(%rbx)
  402748:	48 b8 63 68 61 72 61 	movabs $0x6574636172616863,%rax
  40274f:	63 74 65 
  402752:	48 89 43 38          	mov    %rax,0x38(%rbx)
  402756:	66 c7 43 40 72 2e    	movw   $0x2e72,0x40(%rbx)
  40275c:	c6 43 42 00          	movb   $0x0,0x42(%rbx)
  402760:	89 ef                	mov    %ebp,%edi
  402762:	e8 c9 e5 ff ff       	callq  400d30 <close@plt>
  402767:	b8 ff ff ff ff       	mov    $0xffffffff,%eax
  40276c:	e9 ec 03 00 00       	jmpq   402b5d <submitr+0x746>
  402771:	4c 8d ac 24 40 20 00 	lea    0x2040(%rsp),%r13
  402778:	00 
  402779:	41 54                	push   %r12
  40277b:	48 8d 84 24 48 40 00 	lea    0x4048(%rsp),%rax
  402782:	00 
  402783:	50                   	push   %rax
  402784:	4d 89 f9             	mov    %r15,%r9
  402787:	4d 89 f0             	mov    %r14,%r8
  40278a:	b9 68 36 40 00       	mov    $0x403668,%ecx
  40278f:	ba 00 20 00 00       	mov    $0x2000,%edx
  402794:	be 01 00 00 00       	mov    $0x1,%esi
  402799:	4c 89 ef             	mov    %r13,%rdi
  40279c:	b8 00 00 00 00       	mov    $0x0,%eax
  4027a1:	e8 da e6 ff ff       	callq  400e80 <__sprintf_chk@plt>
  4027a6:	b8 00 00 00 00       	mov    $0x0,%eax
  4027ab:	48 c7 c1 ff ff ff ff 	mov    $0xffffffffffffffff,%rcx
  4027b2:	4c 89 ef             	mov    %r13,%rdi
  4027b5:	f2 ae                	repnz scas %es:(%rdi),%al
  4027b7:	48 f7 d1             	not    %rcx
  4027ba:	48 8d 51 ff          	lea    -0x1(%rcx),%rdx
  4027be:	4c 89 ee             	mov    %r13,%rsi
  4027c1:	89 ef                	mov    %ebp,%edi
  4027c3:	e8 b1 f9 ff ff       	callq  402179 <rio_writen>
  4027c8:	48 83 c4 10          	add    $0x10,%rsp
  4027cc:	48 85 c0             	test   %rax,%rax
  4027cf:	79 6e                	jns    40283f <submitr+0x428>
  4027d1:	48 b8 45 72 72 6f 72 	movabs $0x43203a726f727245,%rax
  4027d8:	3a 20 43 
  4027db:	48 89 03             	mov    %rax,(%rbx)
  4027de:	48 b8 6c 69 65 6e 74 	movabs $0x6e7520746e65696c,%rax
  4027e5:	20 75 6e 
  4027e8:	48 89 43 08          	mov    %rax,0x8(%rbx)
  4027ec:	48 b8 61 62 6c 65 20 	movabs $0x206f7420656c6261,%rax
  4027f3:	74 6f 20 
  4027f6:	48 89 43 10          	mov    %rax,0x10(%rbx)
  4027fa:	48 b8 77 72 69 74 65 	movabs $0x6f74206574697277,%rax
  402801:	20 74 6f 
  402804:	48 89 43 18          	mov    %rax,0x18(%rbx)
  402808:	48 b8 20 74 68 65 20 	movabs $0x7365722065687420,%rax
  40280f:	72 65 73 
  402812:	48 89 43 20          	mov    %rax,0x20(%rbx)
  402816:	48 b8 75 6c 74 20 73 	movabs $0x7672657320746c75,%rax
  40281d:	65 72 76 
  402820:	48 89 43 28          	mov    %rax,0x28(%rbx)
  402824:	66 c7 43 30 65 72    	movw   $0x7265,0x30(%rbx)
  40282a:	c6 43 32 00          	movb   $0x0,0x32(%rbx)
  40282e:	89 ef                	mov    %ebp,%edi
  402830:	e8 fb e4 ff ff       	callq  400d30 <close@plt>
  402835:	b8 ff ff ff ff       	mov    $0xffffffff,%eax
  40283a:	e9 1e 03 00 00       	jmpq   402b5d <submitr+0x746>
  40283f:	89 ee                	mov    %ebp,%esi
  402841:	48 8d 7c 24 30       	lea    0x30(%rsp),%rdi
  402846:	e8 ee f8 ff ff       	callq  402139 <rio_readinitb>
  40284b:	ba 00 20 00 00       	mov    $0x2000,%edx
  402850:	48 8d b4 24 40 20 00 	lea    0x2040(%rsp),%rsi
  402857:	00 
  402858:	48 8d 7c 24 30       	lea    0x30(%rsp),%rdi
  40285d:	e8 fe f9 ff ff       	callq  402260 <rio_readlineb>
  402862:	48 85 c0             	test   %rax,%rax
  402865:	7f 7d                	jg     4028e4 <submitr+0x4cd>
  402867:	48 b8 45 72 72 6f 72 	movabs $0x43203a726f727245,%rax
  40286e:	3a 20 43 
  402871:	48 89 03             	mov    %rax,(%rbx)
  402874:	48 b8 6c 69 65 6e 74 	movabs $0x6e7520746e65696c,%rax
  40287b:	20 75 6e 
  40287e:	48 89 43 08          	mov    %rax,0x8(%rbx)
  402882:	48 b8 61 62 6c 65 20 	movabs $0x206f7420656c6261,%rax
  402889:	74 6f 20 
  40288c:	48 89 43 10          	mov    %rax,0x10(%rbx)
  402890:	48 b8 72 65 61 64 20 	movabs $0x7269662064616572,%rax
  402897:	66 69 72 
  40289a:	48 89 43 18          	mov    %rax,0x18(%rbx)
  40289e:	48 b8 73 74 20 68 65 	movabs $0x6564616568207473,%rax
  4028a5:	61 64 65 
  4028a8:	48 89 43 20          	mov    %rax,0x20(%rbx)
  4028ac:	48 b8 72 20 66 72 6f 	movabs $0x72206d6f72662072,%rax
  4028b3:	6d 20 72 
  4028b6:	48 89 43 28          	mov    %rax,0x28(%rbx)
  4028ba:	48 b8 65 73 75 6c 74 	movabs $0x657320746c757365,%rax
  4028c1:	20 73 65 
  4028c4:	48 89 43 30          	mov    %rax,0x30(%rbx)
  4028c8:	c7 43 38 72 76 65 72 	movl   $0x72657672,0x38(%rbx)
  4028cf:	c6 43 3c 00          	movb   $0x0,0x3c(%rbx)
  4028d3:	89 ef                	mov    %ebp,%edi
  4028d5:	e8 56 e4 ff ff       	callq  400d30 <close@plt>
  4028da:	b8 ff ff ff ff       	mov    $0xffffffff,%eax
  4028df:	e9 79 02 00 00       	jmpq   402b5d <submitr+0x746>
  4028e4:	4c 8d 84 24 40 80 00 	lea    0x8040(%rsp),%r8
  4028eb:	00 
  4028ec:	48 8d 4c 24 1c       	lea    0x1c(%rsp),%rcx
  4028f1:	48 8d 94 24 40 60 00 	lea    0x6040(%rsp),%rdx
  4028f8:	00 
  4028f9:	be df 36 40 00       	mov    $0x4036df,%esi
  4028fe:	48 8d bc 24 40 20 00 	lea    0x2040(%rsp),%rdi
  402905:	00 
  402906:	b8 00 00 00 00       	mov    $0x0,%eax
  40290b:	e8 d0 e4 ff ff       	callq  400de0 <__isoc99_sscanf@plt>
  402910:	e9 95 00 00 00       	jmpq   4029aa <submitr+0x593>
  402915:	ba 00 20 00 00       	mov    $0x2000,%edx
  40291a:	48 8d b4 24 40 20 00 	lea    0x2040(%rsp),%rsi
  402921:	00 
  402922:	48 8d 7c 24 30       	lea    0x30(%rsp),%rdi
  402927:	e8 34 f9 ff ff       	callq  402260 <rio_readlineb>
  40292c:	48 85 c0             	test   %rax,%rax
  40292f:	7f 79                	jg     4029aa <submitr+0x593>
  402931:	48 b8 45 72 72 6f 72 	movabs $0x43203a726f727245,%rax
  402938:	3a 20 43 
  40293b:	48 89 03             	mov    %rax,(%rbx)
  40293e:	48 b8 6c 69 65 6e 74 	movabs $0x6e7520746e65696c,%rax
  402945:	20 75 6e 
  402948:	48 89 43 08          	mov    %rax,0x8(%rbx)
  40294c:	48 b8 61 62 6c 65 20 	movabs $0x206f7420656c6261,%rax
  402953:	74 6f 20 
  402956:	48 89 43 10          	mov    %rax,0x10(%rbx)
  40295a:	48 b8 72 65 61 64 20 	movabs $0x6165682064616572,%rax
  402961:	68 65 61 
  402964:	48 89 43 18          	mov    %rax,0x18(%rbx)
  402968:	48 b8 64 65 72 73 20 	movabs $0x6f72662073726564,%rax
  40296f:	66 72 6f 
  402972:	48 89 43 20          	mov    %rax,0x20(%rbx)
  402976:	48 b8 6d 20 74 68 65 	movabs $0x657220656874206d,%rax
  40297d:	20 72 65 
  402980:	48 89 43 28          	mov    %rax,0x28(%rbx)
  402984:	48 b8 73 75 6c 74 20 	movabs $0x72657320746c7573,%rax
  40298b:	73 65 72 
  40298e:	48 89 43 30          	mov    %rax,0x30(%rbx)
  402992:	c7 43 38 76 65 72 00 	movl   $0x726576,0x38(%rbx)
  402999:	89 ef                	mov    %ebp,%edi
  40299b:	e8 90 e3 ff ff       	callq  400d30 <close@plt>
  4029a0:	b8 ff ff ff ff       	mov    $0xffffffff,%eax
  4029a5:	e9 b3 01 00 00       	jmpq   402b5d <submitr+0x746>
  4029aa:	0f b6 94 24 40 20 00 	movzbl 0x2040(%rsp),%edx
  4029b1:	00 
  4029b2:	b8 0d 00 00 00       	mov    $0xd,%eax
  4029b7:	29 d0                	sub    %edx,%eax
  4029b9:	75 1b                	jne    4029d6 <submitr+0x5bf>
  4029bb:	0f b6 94 24 41 20 00 	movzbl 0x2041(%rsp),%edx
  4029c2:	00 
  4029c3:	b8 0a 00 00 00       	mov    $0xa,%eax
  4029c8:	29 d0                	sub    %edx,%eax
  4029ca:	75 0a                	jne    4029d6 <submitr+0x5bf>
  4029cc:	0f b6 84 24 42 20 00 	movzbl 0x2042(%rsp),%eax
  4029d3:	00 
  4029d4:	f7 d8                	neg    %eax
  4029d6:	85 c0                	test   %eax,%eax
  4029d8:	0f 85 37 ff ff ff    	jne    402915 <submitr+0x4fe>
  4029de:	ba 00 20 00 00       	mov    $0x2000,%edx
  4029e3:	48 8d b4 24 40 20 00 	lea    0x2040(%rsp),%rsi
  4029ea:	00 
  4029eb:	48 8d 7c 24 30       	lea    0x30(%rsp),%rdi
  4029f0:	e8 6b f8 ff ff       	callq  402260 <rio_readlineb>
  4029f5:	48 85 c0             	test   %rax,%rax
  4029f8:	0f 8f 83 00 00 00    	jg     402a81 <submitr+0x66a>
  4029fe:	48 b8 45 72 72 6f 72 	movabs $0x43203a726f727245,%rax
  402a05:	3a 20 43 
  402a08:	48 89 03             	mov    %rax,(%rbx)
  402a0b:	48 b8 6c 69 65 6e 74 	movabs $0x6e7520746e65696c,%rax
  402a12:	20 75 6e 
  402a15:	48 89 43 08          	mov    %rax,0x8(%rbx)
  402a19:	48 b8 61 62 6c 65 20 	movabs $0x206f7420656c6261,%rax
  402a20:	74 6f 20 
  402a23:	48 89 43 10          	mov    %rax,0x10(%rbx)
  402a27:	48 b8 72 65 61 64 20 	movabs $0x6174732064616572,%rax
  402a2e:	73 74 61 
  402a31:	48 89 43 18          	mov    %rax,0x18(%rbx)
  402a35:	48 b8 74 75 73 20 6d 	movabs $0x7373656d20737574,%rax
  402a3c:	65 73 73 
  402a3f:	48 89 43 20          	mov    %rax,0x20(%rbx)
  402a43:	48 b8 61 67 65 20 66 	movabs $0x6d6f726620656761,%rax
  402a4a:	72 6f 6d 
  402a4d:	48 89 43 28          	mov    %rax,0x28(%rbx)
  402a51:	48 b8 20 72 65 73 75 	movabs $0x20746c7573657220,%rax
  402a58:	6c 74 20 
  402a5b:	48 89 43 30          	mov    %rax,0x30(%rbx)
  402a5f:	c7 43 38 73 65 72 76 	movl   $0x76726573,0x38(%rbx)
  402a66:	66 c7 43 3c 65 72    	movw   $0x7265,0x3c(%rbx)
  402a6c:	c6 43 3e 00          	movb   $0x0,0x3e(%rbx)
  402a70:	89 ef                	mov    %ebp,%edi
  402a72:	e8 b9 e2 ff ff       	callq  400d30 <close@plt>
  402a77:	b8 ff ff ff ff       	mov    $0xffffffff,%eax
  402a7c:	e9 dc 00 00 00       	jmpq   402b5d <submitr+0x746>
  402a81:	44 8b 44 24 1c       	mov    0x1c(%rsp),%r8d
  402a86:	41 81 f8 c8 00 00 00 	cmp    $0xc8,%r8d
  402a8d:	74 37                	je     402ac6 <submitr+0x6af>
  402a8f:	4c 8d 8c 24 40 80 00 	lea    0x8040(%rsp),%r9
  402a96:	00 
  402a97:	b9 a8 36 40 00       	mov    $0x4036a8,%ecx
  402a9c:	48 c7 c2 ff ff ff ff 	mov    $0xffffffffffffffff,%rdx
  402aa3:	be 01 00 00 00       	mov    $0x1,%esi
  402aa8:	48 89 df             	mov    %rbx,%rdi
  402aab:	b8 00 00 00 00       	mov    $0x0,%eax
  402ab0:	e8 cb e3 ff ff       	callq  400e80 <__sprintf_chk@plt>
  402ab5:	89 ef                	mov    %ebp,%edi
  402ab7:	e8 74 e2 ff ff       	callq  400d30 <close@plt>
  402abc:	b8 ff ff ff ff       	mov    $0xffffffff,%eax
  402ac1:	e9 97 00 00 00       	jmpq   402b5d <submitr+0x746>
  402ac6:	48 8d b4 24 40 20 00 	lea    0x2040(%rsp),%rsi
  402acd:	00 
  402ace:	48 89 df             	mov    %rbx,%rdi
  402ad1:	e8 ea e1 ff ff       	callq  400cc0 <strcpy@plt>
  402ad6:	89 ef                	mov    %ebp,%edi
  402ad8:	e8 53 e2 ff ff       	callq  400d30 <close@plt>
  402add:	0f b6 03             	movzbl (%rbx),%eax
  402ae0:	ba 4f 00 00 00       	mov    $0x4f,%edx
  402ae5:	29 c2                	sub    %eax,%edx
  402ae7:	75 22                	jne    402b0b <submitr+0x6f4>
  402ae9:	0f b6 4b 01          	movzbl 0x1(%rbx),%ecx
  402aed:	b8 4b 00 00 00       	mov    $0x4b,%eax
  402af2:	29 c8                	sub    %ecx,%eax
  402af4:	75 17                	jne    402b0d <submitr+0x6f6>
  402af6:	0f b6 4b 02          	movzbl 0x2(%rbx),%ecx
  402afa:	b8 0a 00 00 00       	mov    $0xa,%eax
  402aff:	29 c8                	sub    %ecx,%eax
  402b01:	75 0a                	jne    402b0d <submitr+0x6f6>
  402b03:	0f b6 43 03          	movzbl 0x3(%rbx),%eax
  402b07:	f7 d8                	neg    %eax
  402b09:	eb 02                	jmp    402b0d <submitr+0x6f6>
  402b0b:	89 d0                	mov    %edx,%eax
  402b0d:	85 c0                	test   %eax,%eax
  402b0f:	74 40                	je     402b51 <submitr+0x73a>
  402b11:	bf f0 36 40 00       	mov    $0x4036f0,%edi
  402b16:	b9 05 00 00 00       	mov    $0x5,%ecx
  402b1b:	48 89 de             	mov    %rbx,%rsi
  402b1e:	f3 a6                	repz cmpsb %es:(%rdi),%ds:(%rsi)
  402b20:	0f 97 c0             	seta   %al
  402b23:	0f 92 c1             	setb   %cl
  402b26:	29 c8                	sub    %ecx,%eax
  402b28:	0f be c0             	movsbl %al,%eax
  402b2b:	85 c0                	test   %eax,%eax
  402b2d:	74 2e                	je     402b5d <submitr+0x746>
  402b2f:	85 d2                	test   %edx,%edx
  402b31:	75 13                	jne    402b46 <submitr+0x72f>
  402b33:	0f b6 43 01          	movzbl 0x1(%rbx),%eax
  402b37:	ba 4b 00 00 00       	mov    $0x4b,%edx
  402b3c:	29 c2                	sub    %eax,%edx
  402b3e:	75 06                	jne    402b46 <submitr+0x72f>
  402b40:	0f b6 53 02          	movzbl 0x2(%rbx),%edx
  402b44:	f7 da                	neg    %edx
  402b46:	85 d2                	test   %edx,%edx
  402b48:	75 0e                	jne    402b58 <submitr+0x741>
  402b4a:	b8 00 00 00 00       	mov    $0x0,%eax
  402b4f:	eb 0c                	jmp    402b5d <submitr+0x746>
  402b51:	b8 00 00 00 00       	mov    $0x0,%eax
  402b56:	eb 05                	jmp    402b5d <submitr+0x746>
  402b58:	b8 ff ff ff ff       	mov    $0xffffffff,%eax
  402b5d:	48 8b 9c 24 48 a0 00 	mov    0xa048(%rsp),%rbx
  402b64:	00 
  402b65:	64 48 33 1c 25 28 00 	xor    %fs:0x28,%rbx
  402b6c:	00 00 
  402b6e:	74 05                	je     402b75 <submitr+0x75e>
  402b70:	e8 7b e1 ff ff       	callq  400cf0 <__stack_chk_fail@plt>
  402b75:	48 81 c4 58 a0 00 00 	add    $0xa058,%rsp
  402b7c:	5b                   	pop    %rbx
  402b7d:	5d                   	pop    %rbp
  402b7e:	41 5c                	pop    %r12
  402b80:	41 5d                	pop    %r13
  402b82:	41 5e                	pop    %r14
  402b84:	41 5f                	pop    %r15
  402b86:	c3                   	retq   

0000000000402b87 <init_timeout>:
  402b87:	85 ff                	test   %edi,%edi
  402b89:	74 23                	je     402bae <init_timeout+0x27>
  402b8b:	53                   	push   %rbx
  402b8c:	89 fb                	mov    %edi,%ebx
  402b8e:	85 ff                	test   %edi,%edi
  402b90:	79 05                	jns    402b97 <init_timeout+0x10>
  402b92:	bb 00 00 00 00       	mov    $0x0,%ebx
  402b97:	be 4b 21 40 00       	mov    $0x40214b,%esi
  402b9c:	bf 0e 00 00 00       	mov    $0xe,%edi
  402ba1:	e8 ba e1 ff ff       	callq  400d60 <signal@plt>
  402ba6:	89 df                	mov    %ebx,%edi
  402ba8:	e8 73 e1 ff ff       	callq  400d20 <alarm@plt>
  402bad:	5b                   	pop    %rbx
  402bae:	f3 c3                	repz retq 

0000000000402bb0 <init_driver>:
  402bb0:	55                   	push   %rbp
  402bb1:	53                   	push   %rbx
  402bb2:	48 83 ec 28          	sub    $0x28,%rsp
  402bb6:	48 89 fd             	mov    %rdi,%rbp
  402bb9:	64 48 8b 04 25 28 00 	mov    %fs:0x28,%rax
  402bc0:	00 00 
  402bc2:	48 89 44 24 18       	mov    %rax,0x18(%rsp)
  402bc7:	31 c0                	xor    %eax,%eax
  402bc9:	be 01 00 00 00       	mov    $0x1,%esi
  402bce:	bf 0d 00 00 00       	mov    $0xd,%edi
  402bd3:	e8 88 e1 ff ff       	callq  400d60 <signal@plt>
  402bd8:	be 01 00 00 00       	mov    $0x1,%esi
  402bdd:	bf 1d 00 00 00       	mov    $0x1d,%edi
  402be2:	e8 79 e1 ff ff       	callq  400d60 <signal@plt>
  402be7:	be 01 00 00 00       	mov    $0x1,%esi
  402bec:	bf 1d 00 00 00       	mov    $0x1d,%edi
  402bf1:	e8 6a e1 ff ff       	callq  400d60 <signal@plt>
  402bf6:	ba 00 00 00 00       	mov    $0x0,%edx
  402bfb:	be 01 00 00 00       	mov    $0x1,%esi
  402c00:	bf 02 00 00 00       	mov    $0x2,%edi
  402c05:	e8 86 e2 ff ff       	callq  400e90 <socket@plt>
  402c0a:	85 c0                	test   %eax,%eax
  402c0c:	79 4f                	jns    402c5d <init_driver+0xad>
  402c0e:	48 b8 45 72 72 6f 72 	movabs $0x43203a726f727245,%rax
  402c15:	3a 20 43 
  402c18:	48 89 45 00          	mov    %rax,0x0(%rbp)
  402c1c:	48 b8 6c 69 65 6e 74 	movabs $0x6e7520746e65696c,%rax
  402c23:	20 75 6e 
  402c26:	48 89 45 08          	mov    %rax,0x8(%rbp)
  402c2a:	48 b8 61 62 6c 65 20 	movabs $0x206f7420656c6261,%rax
  402c31:	74 6f 20 
  402c34:	48 89 45 10          	mov    %rax,0x10(%rbp)
  402c38:	48 b8 63 72 65 61 74 	movabs $0x7320657461657263,%rax
  402c3f:	65 20 73 
  402c42:	48 89 45 18          	mov    %rax,0x18(%rbp)
  402c46:	c7 45 20 6f 63 6b 65 	movl   $0x656b636f,0x20(%rbp)
  402c4d:	66 c7 45 24 74 00    	movw   $0x74,0x24(%rbp)
  402c53:	b8 ff ff ff ff       	mov    $0xffffffff,%eax
  402c58:	e9 2a 01 00 00       	jmpq   402d87 <init_driver+0x1d7>
  402c5d:	89 c3                	mov    %eax,%ebx
  402c5f:	bf f5 36 40 00       	mov    $0x4036f5,%edi
  402c64:	e8 07 e1 ff ff       	callq  400d70 <gethostbyname@plt>
  402c69:	48 85 c0             	test   %rax,%rax
  402c6c:	75 68                	jne    402cd6 <init_driver+0x126>
  402c6e:	48 b8 45 72 72 6f 72 	movabs $0x44203a726f727245,%rax
  402c75:	3a 20 44 
  402c78:	48 89 45 00          	mov    %rax,0x0(%rbp)
  402c7c:	48 b8 4e 53 20 69 73 	movabs $0x6e7520736920534e,%rax
  402c83:	20 75 6e 
  402c86:	48 89 45 08          	mov    %rax,0x8(%rbp)
  402c8a:	48 b8 61 62 6c 65 20 	movabs $0x206f7420656c6261,%rax
  402c91:	74 6f 20 
  402c94:	48 89 45 10          	mov    %rax,0x10(%rbp)
  402c98:	48 b8 72 65 73 6f 6c 	movabs $0x2065766c6f736572,%rax
  402c9f:	76 65 20 
  402ca2:	48 89 45 18          	mov    %rax,0x18(%rbp)
  402ca6:	48 b8 73 65 72 76 65 	movabs $0x6120726576726573,%rax
  402cad:	72 20 61 
  402cb0:	48 89 45 20          	mov    %rax,0x20(%rbp)
  402cb4:	c7 45 28 64 64 72 65 	movl   $0x65726464,0x28(%rbp)
  402cbb:	66 c7 45 2c 73 73    	movw   $0x7373,0x2c(%rbp)
  402cc1:	c6 45 2e 00          	movb   $0x0,0x2e(%rbp)
  402cc5:	89 df                	mov    %ebx,%edi
  402cc7:	e8 64 e0 ff ff       	callq  400d30 <close@plt>
  402ccc:	b8 ff ff ff ff       	mov    $0xffffffff,%eax
  402cd1:	e9 b1 00 00 00       	jmpq   402d87 <init_driver+0x1d7>
  402cd6:	48 c7 04 24 00 00 00 	movq   $0x0,(%rsp)
  402cdd:	00 
  402cde:	48 c7 44 24 08 00 00 	movq   $0x0,0x8(%rsp)
  402ce5:	00 00 
  402ce7:	66 c7 04 24 02 00    	movw   $0x2,(%rsp)
  402ced:	48 63 50 14          	movslq 0x14(%rax),%rdx
  402cf1:	48 8b 40 18          	mov    0x18(%rax),%rax
  402cf5:	48 8b 30             	mov    (%rax),%rsi
  402cf8:	48 8d 7c 24 04       	lea    0x4(%rsp),%rdi
  402cfd:	b9 0c 00 00 00       	mov    $0xc,%ecx
  402d02:	e8 79 e0 ff ff       	callq  400d80 <__memmove_chk@plt>
  402d07:	66 c7 44 24 02 3c 9a 	movw   $0x9a3c,0x2(%rsp)
  402d0e:	ba 10 00 00 00       	mov    $0x10,%edx
  402d13:	48 89 e6             	mov    %rsp,%rsi
  402d16:	89 df                	mov    %ebx,%edi
  402d18:	e8 43 e1 ff ff       	callq  400e60 <connect@plt>
  402d1d:	85 c0                	test   %eax,%eax
  402d1f:	79 50                	jns    402d71 <init_driver+0x1c1>
  402d21:	48 b8 45 72 72 6f 72 	movabs $0x55203a726f727245,%rax
  402d28:	3a 20 55 
  402d2b:	48 89 45 00          	mov    %rax,0x0(%rbp)
  402d2f:	48 b8 6e 61 62 6c 65 	movabs $0x6f7420656c62616e,%rax
  402d36:	20 74 6f 
  402d39:	48 89 45 08          	mov    %rax,0x8(%rbp)
  402d3d:	48 b8 20 63 6f 6e 6e 	movabs $0x7463656e6e6f6320,%rax
  402d44:	65 63 74 
  402d47:	48 89 45 10          	mov    %rax,0x10(%rbp)
  402d4b:	48 b8 20 74 6f 20 73 	movabs $0x76726573206f7420,%rax
  402d52:	65 72 76 
  402d55:	48 89 45 18          	mov    %rax,0x18(%rbp)
  402d59:	66 c7 45 20 65 72    	movw   $0x7265,0x20(%rbp)
  402d5f:	c6 45 22 00          	movb   $0x0,0x22(%rbp)
  402d63:	89 df                	mov    %ebx,%edi
  402d65:	e8 c6 df ff ff       	callq  400d30 <close@plt>
  402d6a:	b8 ff ff ff ff       	mov    $0xffffffff,%eax
  402d6f:	eb 16                	jmp    402d87 <init_driver+0x1d7>
  402d71:	89 df                	mov    %ebx,%edi
  402d73:	e8 b8 df ff ff       	callq  400d30 <close@plt>
  402d78:	66 c7 45 00 4f 4b    	movw   $0x4b4f,0x0(%rbp)
  402d7e:	c6 45 02 00          	movb   $0x0,0x2(%rbp)
  402d82:	b8 00 00 00 00       	mov    $0x0,%eax
  402d87:	48 8b 4c 24 18       	mov    0x18(%rsp),%rcx
  402d8c:	64 48 33 0c 25 28 00 	xor    %fs:0x28,%rcx
  402d93:	00 00 
  402d95:	74 05                	je     402d9c <init_driver+0x1ec>
  402d97:	e8 54 df ff ff       	callq  400cf0 <__stack_chk_fail@plt>
  402d9c:	48 83 c4 28          	add    $0x28,%rsp
  402da0:	5b                   	pop    %rbx
  402da1:	5d                   	pop    %rbp
  402da2:	c3                   	retq   

0000000000402da3 <driver_post>:
  402da3:	53                   	push   %rbx
  402da4:	4c 89 cb             	mov    %r9,%rbx
  402da7:	45 85 c0             	test   %r8d,%r8d
  402daa:	74 27                	je     402dd3 <driver_post+0x30>
  402dac:	48 89 ca             	mov    %rcx,%rdx
  402daf:	be 0d 37 40 00       	mov    $0x40370d,%esi
  402db4:	bf 01 00 00 00       	mov    $0x1,%edi
  402db9:	b8 00 00 00 00       	mov    $0x0,%eax
  402dbe:	e8 3d e0 ff ff       	callq  400e00 <__printf_chk@plt>
  402dc3:	66 c7 03 4f 4b       	movw   $0x4b4f,(%rbx)
  402dc8:	c6 43 02 00          	movb   $0x0,0x2(%rbx)
  402dcc:	b8 00 00 00 00       	mov    $0x0,%eax
  402dd1:	eb 3f                	jmp    402e12 <driver_post+0x6f>
  402dd3:	48 85 ff             	test   %rdi,%rdi
  402dd6:	74 2c                	je     402e04 <driver_post+0x61>
  402dd8:	80 3f 00             	cmpb   $0x0,(%rdi)
  402ddb:	74 27                	je     402e04 <driver_post+0x61>
  402ddd:	48 83 ec 08          	sub    $0x8,%rsp
  402de1:	41 51                	push   %r9
  402de3:	49 89 c9             	mov    %rcx,%r9
  402de6:	49 89 d0             	mov    %rdx,%r8
  402de9:	48 89 f9             	mov    %rdi,%rcx
  402dec:	48 89 f2             	mov    %rsi,%rdx
  402def:	be 9a 3c 00 00       	mov    $0x3c9a,%esi
  402df4:	bf f5 36 40 00       	mov    $0x4036f5,%edi
  402df9:	e8 19 f6 ff ff       	callq  402417 <submitr>
  402dfe:	48 83 c4 10          	add    $0x10,%rsp
  402e02:	eb 0e                	jmp    402e12 <driver_post+0x6f>
  402e04:	66 c7 03 4f 4b       	movw   $0x4b4f,(%rbx)
  402e09:	c6 43 02 00          	movb   $0x0,0x2(%rbx)
  402e0d:	b8 00 00 00 00       	mov    $0x0,%eax
  402e12:	5b                   	pop    %rbx
  402e13:	c3                   	retq   

0000000000402e14 <check>:
  402e14:	89 f8                	mov    %edi,%eax
  402e16:	c1 e8 1c             	shr    $0x1c,%eax
  402e19:	85 c0                	test   %eax,%eax
  402e1b:	74 1d                	je     402e3a <check+0x26>
  402e1d:	b9 00 00 00 00       	mov    $0x0,%ecx
  402e22:	eb 0b                	jmp    402e2f <check+0x1b>
  402e24:	89 f8                	mov    %edi,%eax
  402e26:	d3 e8                	shr    %cl,%eax
  402e28:	3c 0a                	cmp    $0xa,%al
  402e2a:	74 14                	je     402e40 <check+0x2c>
  402e2c:	83 c1 08             	add    $0x8,%ecx
  402e2f:	83 f9 1f             	cmp    $0x1f,%ecx
  402e32:	7e f0                	jle    402e24 <check+0x10>
  402e34:	b8 01 00 00 00       	mov    $0x1,%eax
  402e39:	c3                   	retq   
  402e3a:	b8 00 00 00 00       	mov    $0x0,%eax
  402e3f:	c3                   	retq   
  402e40:	b8 00 00 00 00       	mov    $0x0,%eax
  402e45:	c3                   	retq   

0000000000402e46 <gencookie>:
  402e46:	53                   	push   %rbx
  402e47:	83 c7 01             	add    $0x1,%edi
  402e4a:	e8 51 de ff ff       	callq  400ca0 <srandom@plt>
  402e4f:	e8 6c df ff ff       	callq  400dc0 <random@plt>
  402e54:	89 c3                	mov    %eax,%ebx
  402e56:	89 c7                	mov    %eax,%edi
  402e58:	e8 b7 ff ff ff       	callq  402e14 <check>
  402e5d:	85 c0                	test   %eax,%eax
  402e5f:	74 ee                	je     402e4f <gencookie+0x9>
  402e61:	89 d8                	mov    %ebx,%eax
  402e63:	5b                   	pop    %rbx
  402e64:	c3                   	retq   
  402e65:	66 2e 0f 1f 84 00 00 	nopw   %cs:0x0(%rax,%rax,1)
  402e6c:	00 00 00 
  402e6f:	90                   	nop

0000000000402e70 <__libc_csu_init>:
  402e70:	41 57                	push   %r15
  402e72:	41 56                	push   %r14
  402e74:	41 89 ff             	mov    %edi,%r15d
  402e77:	41 55                	push   %r13
  402e79:	41 54                	push   %r12
  402e7b:	4c 8d 25 8e 1f 20 00 	lea    0x201f8e(%rip),%r12        # 604e10 <__frame_dummy_init_array_entry>
  402e82:	55                   	push   %rbp
  402e83:	48 8d 2d 8e 1f 20 00 	lea    0x201f8e(%rip),%rbp        # 604e18 <__init_array_end>
  402e8a:	53                   	push   %rbx
  402e8b:	49 89 f6             	mov    %rsi,%r14
  402e8e:	49 89 d5             	mov    %rdx,%r13
  402e91:	4c 29 e5             	sub    %r12,%rbp
  402e94:	48 83 ec 08          	sub    $0x8,%rsp
  402e98:	48 c1 fd 03          	sar    $0x3,%rbp
  402e9c:	e8 a7 dd ff ff       	callq  400c48 <_init>
  402ea1:	48 85 ed             	test   %rbp,%rbp
  402ea4:	74 20                	je     402ec6 <__libc_csu_init+0x56>
  402ea6:	31 db                	xor    %ebx,%ebx
  402ea8:	0f 1f 84 00 00 00 00 	nopl   0x0(%rax,%rax,1)
  402eaf:	00 
  402eb0:	4c 89 ea             	mov    %r13,%rdx
  402eb3:	4c 89 f6             	mov    %r14,%rsi
  402eb6:	44 89 ff             	mov    %r15d,%edi
  402eb9:	41 ff 14 dc          	callq  *(%r12,%rbx,8)
  402ebd:	48 83 c3 01          	add    $0x1,%rbx
  402ec1:	48 39 eb             	cmp    %rbp,%rbx
  402ec4:	75 ea                	jne    402eb0 <__libc_csu_init+0x40>
  402ec6:	48 83 c4 08          	add    $0x8,%rsp
  402eca:	5b                   	pop    %rbx
  402ecb:	5d                   	pop    %rbp
  402ecc:	41 5c                	pop    %r12
  402ece:	41 5d                	pop    %r13
  402ed0:	41 5e                	pop    %r14
  402ed2:	41 5f                	pop    %r15
  402ed4:	c3                   	retq   
  402ed5:	90                   	nop
  402ed6:	66 2e 0f 1f 84 00 00 	nopw   %cs:0x0(%rax,%rax,1)
  402edd:	00 00 00 

0000000000402ee0 <__libc_csu_fini>:
  402ee0:	f3 c3                	repz retq 

Disassembly of section .fini:

0000000000402ee4 <_fini>:
  402ee4:	48 83 ec 08          	sub    $0x8,%rsp
  402ee8:	48 83 c4 08          	add    $0x8,%rsp
  402eec:	c3                   	retq 
