rtarget:     file format elf64-x86-64


Disassembly of section .init:

0000000000400c48 <_init>:
  400c48:	48 83 ec 08          	sub    $0x8,%rsp
  400c4c:	48 8b 05 a5 43 20 00 	mov    0x2043a5(%rip),%rax        # 604ff8 <_DYNAMIC+0x1d0>
  400c53:	48 85 c0             	test   %rax,%rax
  400c56:	74 05                	je     400c5d <_init+0x15>
  400c58:	e8 43 02 00 00       	callq  400ea0 <socket@plt+0x10>
  400c5d:	48 83 c4 08          	add    $0x8,%rsp
  400c61:	c3                   	retq   

Disassembly of section .plt:

0000000000400c70 <strcasecmp@plt-0x10>:
  400c70:	ff 35 92 43 20 00    	pushq  0x204392(%rip)        # 605008 <_GLOBAL_OFFSET_TABLE_+0x8>
  400c76:	ff 25 94 43 20 00    	jmpq   *0x204394(%rip)        # 605010 <_GLOBAL_OFFSET_TABLE_+0x10>
  400c7c:	0f 1f 40 00          	nopl   0x0(%rax)

0000000000400c80 <strcasecmp@plt>:
  400c80:	ff 25 92 43 20 00    	jmpq   *0x204392(%rip)        # 605018 <_GLOBAL_OFFSET_TABLE_+0x18>
  400c86:	68 00 00 00 00       	pushq  $0x0
  400c8b:	e9 e0 ff ff ff       	jmpq   400c70 <_init+0x28>

0000000000400c90 <__errno_location@plt>:
  400c90:	ff 25 8a 43 20 00    	jmpq   *0x20438a(%rip)        # 605020 <_GLOBAL_OFFSET_TABLE_+0x20>
  400c96:	68 01 00 00 00       	pushq  $0x1
  400c9b:	e9 d0 ff ff ff       	jmpq   400c70 <_init+0x28>

0000000000400ca0 <srandom@plt>:
  400ca0:	ff 25 82 43 20 00    	jmpq   *0x204382(%rip)        # 605028 <_GLOBAL_OFFSET_TABLE_+0x28>
  400ca6:	68 02 00 00 00       	pushq  $0x2
  400cab:	e9 c0 ff ff ff       	jmpq   400c70 <_init+0x28>

0000000000400cb0 <strncmp@plt>:
  400cb0:	ff 25 7a 43 20 00    	jmpq   *0x20437a(%rip)        # 605030 <_GLOBAL_OFFSET_TABLE_+0x30>
  400cb6:	68 03 00 00 00       	pushq  $0x3
  400cbb:	e9 b0 ff ff ff       	jmpq   400c70 <_init+0x28>

0000000000400cc0 <strcpy@plt>:
  400cc0:	ff 25 72 43 20 00    	jmpq   *0x204372(%rip)        # 605038 <_GLOBAL_OFFSET_TABLE_+0x38>
  400cc6:	68 04 00 00 00       	pushq  $0x4
  400ccb:	e9 a0 ff ff ff       	jmpq   400c70 <_init+0x28>

0000000000400cd0 <puts@plt>:
  400cd0:	ff 25 6a 43 20 00    	jmpq   *0x20436a(%rip)        # 605040 <_GLOBAL_OFFSET_TABLE_+0x40>
  400cd6:	68 05 00 00 00       	pushq  $0x5
  400cdb:	e9 90 ff ff ff       	jmpq   400c70 <_init+0x28>

0000000000400ce0 <write@plt>:
  400ce0:	ff 25 62 43 20 00    	jmpq   *0x204362(%rip)        # 605048 <_GLOBAL_OFFSET_TABLE_+0x48>
  400ce6:	68 06 00 00 00       	pushq  $0x6
  400ceb:	e9 80 ff ff ff       	jmpq   400c70 <_init+0x28>

0000000000400cf0 <__stack_chk_fail@plt>:
  400cf0:	ff 25 5a 43 20 00    	jmpq   *0x20435a(%rip)        # 605050 <_GLOBAL_OFFSET_TABLE_+0x50>
  400cf6:	68 07 00 00 00       	pushq  $0x7
  400cfb:	e9 70 ff ff ff       	jmpq   400c70 <_init+0x28>

0000000000400d00 <mmap@plt>:
  400d00:	ff 25 52 43 20 00    	jmpq   *0x204352(%rip)        # 605058 <_GLOBAL_OFFSET_TABLE_+0x58>
  400d06:	68 08 00 00 00       	pushq  $0x8
  400d0b:	e9 60 ff ff ff       	jmpq   400c70 <_init+0x28>

0000000000400d10 <memset@plt>:
  400d10:	ff 25 4a 43 20 00    	jmpq   *0x20434a(%rip)        # 605060 <_GLOBAL_OFFSET_TABLE_+0x60>
  400d16:	68 09 00 00 00       	pushq  $0x9
  400d1b:	e9 50 ff ff ff       	jmpq   400c70 <_init+0x28>

0000000000400d20 <alarm@plt>:
  400d20:	ff 25 42 43 20 00    	jmpq   *0x204342(%rip)        # 605068 <_GLOBAL_OFFSET_TABLE_+0x68>
  400d26:	68 0a 00 00 00       	pushq  $0xa
  400d2b:	e9 40 ff ff ff       	jmpq   400c70 <_init+0x28>

0000000000400d30 <close@plt>:
  400d30:	ff 25 3a 43 20 00    	jmpq   *0x20433a(%rip)        # 605070 <_GLOBAL_OFFSET_TABLE_+0x70>
  400d36:	68 0b 00 00 00       	pushq  $0xb
  400d3b:	e9 30 ff ff ff       	jmpq   400c70 <_init+0x28>

0000000000400d40 <read@plt>:
  400d40:	ff 25 32 43 20 00    	jmpq   *0x204332(%rip)        # 605078 <_GLOBAL_OFFSET_TABLE_+0x78>
  400d46:	68 0c 00 00 00       	pushq  $0xc
  400d4b:	e9 20 ff ff ff       	jmpq   400c70 <_init+0x28>

0000000000400d50 <__libc_start_main@plt>:
  400d50:	ff 25 2a 43 20 00    	jmpq   *0x20432a(%rip)        # 605080 <_GLOBAL_OFFSET_TABLE_+0x80>
  400d56:	68 0d 00 00 00       	pushq  $0xd
  400d5b:	e9 10 ff ff ff       	jmpq   400c70 <_init+0x28>

0000000000400d60 <signal@plt>:
  400d60:	ff 25 22 43 20 00    	jmpq   *0x204322(%rip)        # 605088 <_GLOBAL_OFFSET_TABLE_+0x88>
  400d66:	68 0e 00 00 00       	pushq  $0xe
  400d6b:	e9 00 ff ff ff       	jmpq   400c70 <_init+0x28>

0000000000400d70 <gethostbyname@plt>:
  400d70:	ff 25 1a 43 20 00    	jmpq   *0x20431a(%rip)        # 605090 <_GLOBAL_OFFSET_TABLE_+0x90>
  400d76:	68 0f 00 00 00       	pushq  $0xf
  400d7b:	e9 f0 fe ff ff       	jmpq   400c70 <_init+0x28>

0000000000400d80 <__memmove_chk@plt>:
  400d80:	ff 25 12 43 20 00    	jmpq   *0x204312(%rip)        # 605098 <_GLOBAL_OFFSET_TABLE_+0x98>
  400d86:	68 10 00 00 00       	pushq  $0x10
  400d8b:	e9 e0 fe ff ff       	jmpq   400c70 <_init+0x28>

0000000000400d90 <strtol@plt>:
  400d90:	ff 25 0a 43 20 00    	jmpq   *0x20430a(%rip)        # 6050a0 <_GLOBAL_OFFSET_TABLE_+0xa0>
  400d96:	68 11 00 00 00       	pushq  $0x11
  400d9b:	e9 d0 fe ff ff       	jmpq   400c70 <_init+0x28>

0000000000400da0 <memcpy@plt>:
  400da0:	ff 25 02 43 20 00    	jmpq   *0x204302(%rip)        # 6050a8 <_GLOBAL_OFFSET_TABLE_+0xa8>
  400da6:	68 12 00 00 00       	pushq  $0x12
  400dab:	e9 c0 fe ff ff       	jmpq   400c70 <_init+0x28>

0000000000400db0 <time@plt>:
  400db0:	ff 25 fa 42 20 00    	jmpq   *0x2042fa(%rip)        # 6050b0 <_GLOBAL_OFFSET_TABLE_+0xb0>
  400db6:	68 13 00 00 00       	pushq  $0x13
  400dbb:	e9 b0 fe ff ff       	jmpq   400c70 <_init+0x28>

0000000000400dc0 <random@plt>:
  400dc0:	ff 25 f2 42 20 00    	jmpq   *0x2042f2(%rip)        # 6050b8 <_GLOBAL_OFFSET_TABLE_+0xb8>
  400dc6:	68 14 00 00 00       	pushq  $0x14
  400dcb:	e9 a0 fe ff ff       	jmpq   400c70 <_init+0x28>

0000000000400dd0 <_IO_getc@plt>:
  400dd0:	ff 25 ea 42 20 00    	jmpq   *0x2042ea(%rip)        # 6050c0 <_GLOBAL_OFFSET_TABLE_+0xc0>
  400dd6:	68 15 00 00 00       	pushq  $0x15
  400ddb:	e9 90 fe ff ff       	jmpq   400c70 <_init+0x28>

0000000000400de0 <__isoc99_sscanf@plt>:
  400de0:	ff 25 e2 42 20 00    	jmpq   *0x2042e2(%rip)        # 6050c8 <_GLOBAL_OFFSET_TABLE_+0xc8>
  400de6:	68 16 00 00 00       	pushq  $0x16
  400deb:	e9 80 fe ff ff       	jmpq   400c70 <_init+0x28>

0000000000400df0 <munmap@plt>:
  400df0:	ff 25 da 42 20 00    	jmpq   *0x2042da(%rip)        # 6050d0 <_GLOBAL_OFFSET_TABLE_+0xd0>
  400df6:	68 17 00 00 00       	pushq  $0x17
  400dfb:	e9 70 fe ff ff       	jmpq   400c70 <_init+0x28>

0000000000400e00 <__printf_chk@plt>:
  400e00:	ff 25 d2 42 20 00    	jmpq   *0x2042d2(%rip)        # 6050d8 <_GLOBAL_OFFSET_TABLE_+0xd8>
  400e06:	68 18 00 00 00       	pushq  $0x18
  400e0b:	e9 60 fe ff ff       	jmpq   400c70 <_init+0x28>

0000000000400e10 <fopen@plt>:
  400e10:	ff 25 ca 42 20 00    	jmpq   *0x2042ca(%rip)        # 6050e0 <_GLOBAL_OFFSET_TABLE_+0xe0>
  400e16:	68 19 00 00 00       	pushq  $0x19
  400e1b:	e9 50 fe ff ff       	jmpq   400c70 <_init+0x28>

0000000000400e20 <getopt@plt>:
  400e20:	ff 25 c2 42 20 00    	jmpq   *0x2042c2(%rip)        # 6050e8 <_GLOBAL_OFFSET_TABLE_+0xe8>
  400e26:	68 1a 00 00 00       	pushq  $0x1a
  400e2b:	e9 40 fe ff ff       	jmpq   400c70 <_init+0x28>

0000000000400e30 <strtoul@plt>:
  400e30:	ff 25 ba 42 20 00    	jmpq   *0x2042ba(%rip)        # 6050f0 <_GLOBAL_OFFSET_TABLE_+0xf0>
  400e36:	68 1b 00 00 00       	pushq  $0x1b
  400e3b:	e9 30 fe ff ff       	jmpq   400c70 <_init+0x28>

0000000000400e40 <gethostname@plt>:
  400e40:	ff 25 b2 42 20 00    	jmpq   *0x2042b2(%rip)        # 6050f8 <_GLOBAL_OFFSET_TABLE_+0xf8>
  400e46:	68 1c 00 00 00       	pushq  $0x1c
  400e4b:	e9 20 fe ff ff       	jmpq   400c70 <_init+0x28>

0000000000400e50 <exit@plt>:
  400e50:	ff 25 aa 42 20 00    	jmpq   *0x2042aa(%rip)        # 605100 <_GLOBAL_OFFSET_TABLE_+0x100>
  400e56:	68 1d 00 00 00       	pushq  $0x1d
  400e5b:	e9 10 fe ff ff       	jmpq   400c70 <_init+0x28>

0000000000400e60 <connect@plt>:
  400e60:	ff 25 a2 42 20 00    	jmpq   *0x2042a2(%rip)        # 605108 <_GLOBAL_OFFSET_TABLE_+0x108>
  400e66:	68 1e 00 00 00       	pushq  $0x1e
  400e6b:	e9 00 fe ff ff       	jmpq   400c70 <_init+0x28>

0000000000400e70 <__fprintf_chk@plt>:
  400e70:	ff 25 9a 42 20 00    	jmpq   *0x20429a(%rip)        # 605110 <_GLOBAL_OFFSET_TABLE_+0x110>
  400e76:	68 1f 00 00 00       	pushq  $0x1f
  400e7b:	e9 f0 fd ff ff       	jmpq   400c70 <_init+0x28>

0000000000400e80 <__sprintf_chk@plt>:
  400e80:	ff 25 92 42 20 00    	jmpq   *0x204292(%rip)        # 605118 <_GLOBAL_OFFSET_TABLE_+0x118>
  400e86:	68 20 00 00 00       	pushq  $0x20
  400e8b:	e9 e0 fd ff ff       	jmpq   400c70 <_init+0x28>

0000000000400e90 <socket@plt>:
  400e90:	ff 25 8a 42 20 00    	jmpq   *0x20428a(%rip)        # 605120 <_GLOBAL_OFFSET_TABLE_+0x120>
  400e96:	68 21 00 00 00       	pushq  $0x21
  400e9b:	e9 d0 fd ff ff       	jmpq   400c70 <_init+0x28>

Disassembly of section .plt.got:

0000000000400ea0 <.plt.got>:
  400ea0:	ff 25 52 41 20 00    	jmpq   *0x204152(%rip)        # 604ff8 <_DYNAMIC+0x1d0>
  400ea6:	66 90                	xchg   %ax,%ax

Disassembly of section .text:

0000000000400eb0 <_start>:
  400eb0:	31 ed                	xor    %ebp,%ebp
  400eb2:	49 89 d1             	mov    %rdx,%r9
  400eb5:	5e                   	pop    %rsi
  400eb6:	48 89 e2             	mov    %rsp,%rdx
  400eb9:	48 83 e4 f0          	and    $0xfffffffffffffff0,%rsp
  400ebd:	50                   	push   %rax
  400ebe:	54                   	push   %rsp
  400ebf:	49 c7 c0 00 30 40 00 	mov    $0x403000,%r8
  400ec6:	48 c7 c1 90 2f 40 00 	mov    $0x402f90,%rcx
  400ecd:	48 c7 c7 b5 11 40 00 	mov    $0x4011b5,%rdi
  400ed4:	e8 77 fe ff ff       	callq  400d50 <__libc_start_main@plt>
  400ed9:	f4                   	hlt    
  400eda:	66 0f 1f 44 00 00    	nopw   0x0(%rax,%rax,1)

0000000000400ee0 <deregister_tm_clones>:
  400ee0:	b8 b7 54 60 00       	mov    $0x6054b7,%eax
  400ee5:	55                   	push   %rbp
  400ee6:	48 2d b0 54 60 00    	sub    $0x6054b0,%rax
  400eec:	48 83 f8 0e          	cmp    $0xe,%rax
  400ef0:	48 89 e5             	mov    %rsp,%rbp
  400ef3:	76 1b                	jbe    400f10 <deregister_tm_clones+0x30>
  400ef5:	b8 00 00 00 00       	mov    $0x0,%eax
  400efa:	48 85 c0             	test   %rax,%rax
  400efd:	74 11                	je     400f10 <deregister_tm_clones+0x30>
  400eff:	5d                   	pop    %rbp
  400f00:	bf b0 54 60 00       	mov    $0x6054b0,%edi
  400f05:	ff e0                	jmpq   *%rax
  400f07:	66 0f 1f 84 00 00 00 	nopw   0x0(%rax,%rax,1)
  400f0e:	00 00 
  400f10:	5d                   	pop    %rbp
  400f11:	c3                   	retq   
  400f12:	0f 1f 40 00          	nopl   0x0(%rax)
  400f16:	66 2e 0f 1f 84 00 00 	nopw   %cs:0x0(%rax,%rax,1)
  400f1d:	00 00 00 

0000000000400f20 <register_tm_clones>:
  400f20:	be b0 54 60 00       	mov    $0x6054b0,%esi
  400f25:	55                   	push   %rbp
  400f26:	48 81 ee b0 54 60 00 	sub    $0x6054b0,%rsi
  400f2d:	48 c1 fe 03          	sar    $0x3,%rsi
  400f31:	48 89 e5             	mov    %rsp,%rbp
  400f34:	48 89 f0             	mov    %rsi,%rax
  400f37:	48 c1 e8 3f          	shr    $0x3f,%rax
  400f3b:	48 01 c6             	add    %rax,%rsi
  400f3e:	48 d1 fe             	sar    %rsi
  400f41:	74 15                	je     400f58 <register_tm_clones+0x38>
  400f43:	b8 00 00 00 00       	mov    $0x0,%eax
  400f48:	48 85 c0             	test   %rax,%rax
  400f4b:	74 0b                	je     400f58 <register_tm_clones+0x38>
  400f4d:	5d                   	pop    %rbp
  400f4e:	bf b0 54 60 00       	mov    $0x6054b0,%edi
  400f53:	ff e0                	jmpq   *%rax
  400f55:	0f 1f 00             	nopl   (%rax)
  400f58:	5d                   	pop    %rbp
  400f59:	c3                   	retq   
  400f5a:	66 0f 1f 44 00 00    	nopw   0x0(%rax,%rax,1)

0000000000400f60 <__do_global_dtors_aux>:
  400f60:	80 3d 81 45 20 00 00 	cmpb   $0x0,0x204581(%rip)        # 6054e8 <completed.7585>
  400f67:	75 11                	jne    400f7a <__do_global_dtors_aux+0x1a>
  400f69:	55                   	push   %rbp
  400f6a:	48 89 e5             	mov    %rsp,%rbp
  400f6d:	e8 6e ff ff ff       	callq  400ee0 <deregister_tm_clones>
  400f72:	5d                   	pop    %rbp
  400f73:	c6 05 6e 45 20 00 01 	movb   $0x1,0x20456e(%rip)        # 6054e8 <completed.7585>
  400f7a:	f3 c3                	repz retq 
  400f7c:	0f 1f 40 00          	nopl   0x0(%rax)

0000000000400f80 <frame_dummy>:
  400f80:	bf 20 4e 60 00       	mov    $0x604e20,%edi
  400f85:	48 83 3f 00          	cmpq   $0x0,(%rdi)
  400f89:	75 05                	jne    400f90 <frame_dummy+0x10>
  400f8b:	eb 93                	jmp    400f20 <register_tm_clones>
  400f8d:	0f 1f 00             	nopl   (%rax)
  400f90:	b8 00 00 00 00       	mov    $0x0,%eax
  400f95:	48 85 c0             	test   %rax,%rax
  400f98:	74 f1                	je     400f8b <frame_dummy+0xb>
  400f9a:	55                   	push   %rbp
  400f9b:	48 89 e5             	mov    %rsp,%rbp
  400f9e:	ff d0                	callq  *%rax
  400fa0:	5d                   	pop    %rbp
  400fa1:	e9 7a ff ff ff       	jmpq   400f20 <register_tm_clones>

0000000000400fa6 <usage>:
  400fa6:	48 83 ec 08          	sub    $0x8,%rsp
  400faa:	48 89 fa             	mov    %rdi,%rdx
  400fad:	83 3d 74 45 20 00 00 	cmpl   $0x0,0x204574(%rip)        # 605528 <is_checker>
  400fb4:	74 3e                	je     400ff4 <usage+0x4e>
  400fb6:	be 18 30 40 00       	mov    $0x403018,%esi
  400fbb:	bf 01 00 00 00       	mov    $0x1,%edi
  400fc0:	b8 00 00 00 00       	mov    $0x0,%eax
  400fc5:	e8 36 fe ff ff       	callq  400e00 <__printf_chk@plt>
  400fca:	bf 50 30 40 00       	mov    $0x403050,%edi
  400fcf:	e8 fc fc ff ff       	callq  400cd0 <puts@plt>
  400fd4:	bf c8 31 40 00       	mov    $0x4031c8,%edi
  400fd9:	e8 f2 fc ff ff       	callq  400cd0 <puts@plt>
  400fde:	bf 78 30 40 00       	mov    $0x403078,%edi
  400fe3:	e8 e8 fc ff ff       	callq  400cd0 <puts@plt>
  400fe8:	bf e2 31 40 00       	mov    $0x4031e2,%edi
  400fed:	e8 de fc ff ff       	callq  400cd0 <puts@plt>
  400ff2:	eb 32                	jmp    401026 <usage+0x80>
  400ff4:	be fe 31 40 00       	mov    $0x4031fe,%esi
  400ff9:	bf 01 00 00 00       	mov    $0x1,%edi
  400ffe:	b8 00 00 00 00       	mov    $0x0,%eax
  401003:	e8 f8 fd ff ff       	callq  400e00 <__printf_chk@plt>
  401008:	bf a0 30 40 00       	mov    $0x4030a0,%edi
  40100d:	e8 be fc ff ff       	callq  400cd0 <puts@plt>
  401012:	bf c8 30 40 00       	mov    $0x4030c8,%edi
  401017:	e8 b4 fc ff ff       	callq  400cd0 <puts@plt>
  40101c:	bf 1c 32 40 00       	mov    $0x40321c,%edi
  401021:	e8 aa fc ff ff       	callq  400cd0 <puts@plt>
  401026:	bf 00 00 00 00       	mov    $0x0,%edi
  40102b:	e8 20 fe ff ff       	callq  400e50 <exit@plt>

0000000000401030 <initialize_target>:
  401030:	55                   	push   %rbp
  401031:	53                   	push   %rbx
  401032:	48 81 ec 18 21 00 00 	sub    $0x2118,%rsp
  401039:	89 f5                	mov    %esi,%ebp
  40103b:	64 48 8b 04 25 28 00 	mov    %fs:0x28,%rax
  401042:	00 00 
  401044:	48 89 84 24 08 21 00 	mov    %rax,0x2108(%rsp)
  40104b:	00 
  40104c:	31 c0                	xor    %eax,%eax
  40104e:	89 3d c4 44 20 00    	mov    %edi,0x2044c4(%rip)        # 605518 <check_level>
  401054:	8b 3d 0e 41 20 00    	mov    0x20410e(%rip),%edi        # 605168 <target_id>
  40105a:	e8 0c 1f 00 00       	callq  402f6b <gencookie>
  40105f:	89 05 bf 44 20 00    	mov    %eax,0x2044bf(%rip)        # 605524 <cookie>
  401065:	89 c7                	mov    %eax,%edi
  401067:	e8 ff 1e 00 00       	callq  402f6b <gencookie>
  40106c:	89 05 ae 44 20 00    	mov    %eax,0x2044ae(%rip)        # 605520 <authkey>
  401072:	8b 05 f0 40 20 00    	mov    0x2040f0(%rip),%eax        # 605168 <target_id>
  401078:	8d 78 01             	lea    0x1(%rax),%edi
  40107b:	e8 20 fc ff ff       	callq  400ca0 <srandom@plt>
  401080:	e8 3b fd ff ff       	callq  400dc0 <random@plt>
  401085:	89 c7                	mov    %eax,%edi
  401087:	e8 03 03 00 00       	callq  40138f <scramble>
  40108c:	89 c3                	mov    %eax,%ebx
  40108e:	85 ed                	test   %ebp,%ebp
  401090:	74 18                	je     4010aa <initialize_target+0x7a>
  401092:	bf 00 00 00 00       	mov    $0x0,%edi
  401097:	e8 14 fd ff ff       	callq  400db0 <time@plt>
  40109c:	89 c7                	mov    %eax,%edi
  40109e:	e8 fd fb ff ff       	callq  400ca0 <srandom@plt>
  4010a3:	e8 18 fd ff ff       	callq  400dc0 <random@plt>
  4010a8:	eb 05                	jmp    4010af <initialize_target+0x7f>
  4010aa:	b8 00 00 00 00       	mov    $0x0,%eax
  4010af:	01 c3                	add    %eax,%ebx
  4010b1:	0f b7 db             	movzwl %bx,%ebx
  4010b4:	8d 04 dd 00 01 00 00 	lea    0x100(,%rbx,8),%eax
  4010bb:	89 c0                	mov    %eax,%eax
  4010bd:	48 89 05 dc 43 20 00 	mov    %rax,0x2043dc(%rip)        # 6054a0 <buf_offset>
  4010c4:	c6 05 7d 50 20 00 72 	movb   $0x72,0x20507d(%rip)        # 606148 <target_prefix>
  4010cb:	83 3d d6 43 20 00 00 	cmpl   $0x0,0x2043d6(%rip)        # 6054a8 <notify>
  4010d2:	0f 84 bb 00 00 00    	je     401193 <initialize_target+0x163>
  4010d8:	83 3d 49 44 20 00 00 	cmpl   $0x0,0x204449(%rip)        # 605528 <is_checker>
  4010df:	0f 85 ae 00 00 00    	jne    401193 <initialize_target+0x163>
  4010e5:	be 00 01 00 00       	mov    $0x100,%esi
  4010ea:	48 89 e7             	mov    %rsp,%rdi
  4010ed:	e8 4e fd ff ff       	callq  400e40 <gethostname@plt>
  4010f2:	85 c0                	test   %eax,%eax
  4010f4:	74 25                	je     40111b <initialize_target+0xeb>
  4010f6:	bf f8 30 40 00       	mov    $0x4030f8,%edi
  4010fb:	e8 d0 fb ff ff       	callq  400cd0 <puts@plt>
  401100:	bf 08 00 00 00       	mov    $0x8,%edi
  401105:	e8 46 fd ff ff       	callq  400e50 <exit@plt>
  40110a:	48 89 e6             	mov    %rsp,%rsi
  40110d:	e8 6e fb ff ff       	callq  400c80 <strcasecmp@plt>
  401112:	85 c0                	test   %eax,%eax
  401114:	74 21                	je     401137 <initialize_target+0x107>
  401116:	83 c3 01             	add    $0x1,%ebx
  401119:	eb 05                	jmp    401120 <initialize_target+0xf0>
  40111b:	bb 00 00 00 00       	mov    $0x0,%ebx
  401120:	48 63 c3             	movslq %ebx,%rax
  401123:	48 8b 3c c5 80 51 60 	mov    0x605180(,%rax,8),%rdi
  40112a:	00 
  40112b:	48 85 ff             	test   %rdi,%rdi
  40112e:	75 da                	jne    40110a <initialize_target+0xda>
  401130:	b8 00 00 00 00       	mov    $0x0,%eax
  401135:	eb 05                	jmp    40113c <initialize_target+0x10c>
  401137:	b8 01 00 00 00       	mov    $0x1,%eax
  40113c:	85 c0                	test   %eax,%eax
  40113e:	75 1c                	jne    40115c <initialize_target+0x12c>
  401140:	48 89 e2             	mov    %rsp,%rdx
  401143:	be 30 31 40 00       	mov    $0x403130,%esi
  401148:	bf 01 00 00 00       	mov    $0x1,%edi
  40114d:	e8 ae fc ff ff       	callq  400e00 <__printf_chk@plt>
  401152:	bf 08 00 00 00       	mov    $0x8,%edi
  401157:	e8 f4 fc ff ff       	callq  400e50 <exit@plt>
  40115c:	48 8d bc 24 00 01 00 	lea    0x100(%rsp),%rdi
  401163:	00 
  401164:	e8 6c 1b 00 00       	callq  402cd5 <init_driver>
  401169:	85 c0                	test   %eax,%eax
  40116b:	79 26                	jns    401193 <initialize_target+0x163>
  40116d:	48 8d 94 24 00 01 00 	lea    0x100(%rsp),%rdx
  401174:	00 
  401175:	be 70 31 40 00       	mov    $0x403170,%esi
  40117a:	bf 01 00 00 00       	mov    $0x1,%edi
  40117f:	b8 00 00 00 00       	mov    $0x0,%eax
  401184:	e8 77 fc ff ff       	callq  400e00 <__printf_chk@plt>
  401189:	bf 08 00 00 00       	mov    $0x8,%edi
  40118e:	e8 bd fc ff ff       	callq  400e50 <exit@plt>
  401193:	48 8b 84 24 08 21 00 	mov    0x2108(%rsp),%rax
  40119a:	00 
  40119b:	64 48 33 04 25 28 00 	xor    %fs:0x28,%rax
  4011a2:	00 00 
  4011a4:	74 05                	je     4011ab <initialize_target+0x17b>
  4011a6:	e8 45 fb ff ff       	callq  400cf0 <__stack_chk_fail@plt>
  4011ab:	48 81 c4 18 21 00 00 	add    $0x2118,%rsp
  4011b2:	5b                   	pop    %rbx
  4011b3:	5d                   	pop    %rbp
  4011b4:	c3                   	retq   

00000000004011b5 <main>:
  4011b5:	41 56                	push   %r14
  4011b7:	41 55                	push   %r13
  4011b9:	41 54                	push   %r12
  4011bb:	55                   	push   %rbp
  4011bc:	53                   	push   %rbx
  4011bd:	41 89 fc             	mov    %edi,%r12d
  4011c0:	48 89 f3             	mov    %rsi,%rbx
  4011c3:	be 10 20 40 00       	mov    $0x402010,%esi
  4011c8:	bf 0b 00 00 00       	mov    $0xb,%edi
  4011cd:	e8 8e fb ff ff       	callq  400d60 <signal@plt>
  4011d2:	be c2 1f 40 00       	mov    $0x401fc2,%esi
  4011d7:	bf 07 00 00 00       	mov    $0x7,%edi
  4011dc:	e8 7f fb ff ff       	callq  400d60 <signal@plt>
  4011e1:	be 5e 20 40 00       	mov    $0x40205e,%esi
  4011e6:	bf 04 00 00 00       	mov    $0x4,%edi
  4011eb:	e8 70 fb ff ff       	callq  400d60 <signal@plt>
  4011f0:	83 3d 31 43 20 00 00 	cmpl   $0x0,0x204331(%rip)        # 605528 <is_checker>
  4011f7:	74 20                	je     401219 <main+0x64>
  4011f9:	be ac 20 40 00       	mov    $0x4020ac,%esi
  4011fe:	bf 0e 00 00 00       	mov    $0xe,%edi
  401203:	e8 58 fb ff ff       	callq  400d60 <signal@plt>
  401208:	bf 05 00 00 00       	mov    $0x5,%edi
  40120d:	e8 0e fb ff ff       	callq  400d20 <alarm@plt>
  401212:	bd 3a 32 40 00       	mov    $0x40323a,%ebp
  401217:	eb 05                	jmp    40121e <main+0x69>
  401219:	bd 35 32 40 00       	mov    $0x403235,%ebp
  40121e:	48 8b 05 9b 42 20 00 	mov    0x20429b(%rip),%rax        # 6054c0 <stdin@@GLIBC_2.2.5>
  401225:	48 89 05 e4 42 20 00 	mov    %rax,0x2042e4(%rip)        # 605510 <infile>
  40122c:	41 bd 00 00 00 00    	mov    $0x0,%r13d
  401232:	41 be 00 00 00 00    	mov    $0x0,%r14d
  401238:	e9 c6 00 00 00       	jmpq   401303 <main+0x14e>
  40123d:	83 e8 61             	sub    $0x61,%eax
  401240:	3c 10                	cmp    $0x10,%al
  401242:	0f 87 9c 00 00 00    	ja     4012e4 <main+0x12f>
  401248:	0f b6 c0             	movzbl %al,%eax
  40124b:	ff 24 c5 80 32 40 00 	jmpq   *0x403280(,%rax,8)
  401252:	48 8b 3b             	mov    (%rbx),%rdi
  401255:	e8 4c fd ff ff       	callq  400fa6 <usage>
  40125a:	be 0d 35 40 00       	mov    $0x40350d,%esi
  40125f:	48 8b 3d 62 42 20 00 	mov    0x204262(%rip),%rdi        # 6054c8 <optarg@@GLIBC_2.2.5>
  401266:	e8 a5 fb ff ff       	callq  400e10 <fopen@plt>
  40126b:	48 89 05 9e 42 20 00 	mov    %rax,0x20429e(%rip)        # 605510 <infile>
  401272:	48 85 c0             	test   %rax,%rax
  401275:	0f 85 88 00 00 00    	jne    401303 <main+0x14e>
  40127b:	48 8b 0d 46 42 20 00 	mov    0x204246(%rip),%rcx        # 6054c8 <optarg@@GLIBC_2.2.5>
  401282:	ba 42 32 40 00       	mov    $0x403242,%edx
  401287:	be 01 00 00 00       	mov    $0x1,%esi
  40128c:	48 8b 3d 4d 42 20 00 	mov    0x20424d(%rip),%rdi        # 6054e0 <stderr@@GLIBC_2.2.5>
  401293:	e8 d8 fb ff ff       	callq  400e70 <__fprintf_chk@plt>
  401298:	b8 01 00 00 00       	mov    $0x1,%eax
  40129d:	e9 e4 00 00 00       	jmpq   401386 <main+0x1d1>
  4012a2:	ba 10 00 00 00       	mov    $0x10,%edx
  4012a7:	be 00 00 00 00       	mov    $0x0,%esi
  4012ac:	48 8b 3d 15 42 20 00 	mov    0x204215(%rip),%rdi        # 6054c8 <optarg@@GLIBC_2.2.5>
  4012b3:	e8 78 fb ff ff       	callq  400e30 <strtoul@plt>
  4012b8:	41 89 c6             	mov    %eax,%r14d
  4012bb:	eb 46                	jmp    401303 <main+0x14e>
  4012bd:	ba 0a 00 00 00       	mov    $0xa,%edx
  4012c2:	be 00 00 00 00       	mov    $0x0,%esi
  4012c7:	48 8b 3d fa 41 20 00 	mov    0x2041fa(%rip),%rdi        # 6054c8 <optarg@@GLIBC_2.2.5>
  4012ce:	e8 bd fa ff ff       	callq  400d90 <strtol@plt>
  4012d3:	41 89 c5             	mov    %eax,%r13d
  4012d6:	eb 2b                	jmp    401303 <main+0x14e>
  4012d8:	c7 05 c6 41 20 00 00 	movl   $0x0,0x2041c6(%rip)        # 6054a8 <notify>
  4012df:	00 00 00 
  4012e2:	eb 1f                	jmp    401303 <main+0x14e>
  4012e4:	0f be d2             	movsbl %dl,%edx
  4012e7:	be 5f 32 40 00       	mov    $0x40325f,%esi
  4012ec:	bf 01 00 00 00       	mov    $0x1,%edi
  4012f1:	b8 00 00 00 00       	mov    $0x0,%eax
  4012f6:	e8 05 fb ff ff       	callq  400e00 <__printf_chk@plt>
  4012fb:	48 8b 3b             	mov    (%rbx),%rdi
  4012fe:	e8 a3 fc ff ff       	callq  400fa6 <usage>
  401303:	48 89 ea             	mov    %rbp,%rdx
  401306:	48 89 de             	mov    %rbx,%rsi
  401309:	44 89 e7             	mov    %r12d,%edi
  40130c:	e8 0f fb ff ff       	callq  400e20 <getopt@plt>
  401311:	89 c2                	mov    %eax,%edx
  401313:	3c ff                	cmp    $0xff,%al
  401315:	0f 85 22 ff ff ff    	jne    40123d <main+0x88>
  40131b:	be 01 00 00 00       	mov    $0x1,%esi
  401320:	44 89 ef             	mov    %r13d,%edi
  401323:	e8 08 fd ff ff       	callq  401030 <initialize_target>
  401328:	83 3d f9 41 20 00 00 	cmpl   $0x0,0x2041f9(%rip)        # 605528 <is_checker>
  40132f:	74 2a                	je     40135b <main+0x1a6>
  401331:	44 3b 35 e8 41 20 00 	cmp    0x2041e8(%rip),%r14d        # 605520 <authkey>
  401338:	74 21                	je     40135b <main+0x1a6>
  40133a:	44 89 f2             	mov    %r14d,%edx
  40133d:	be 98 31 40 00       	mov    $0x403198,%esi
  401342:	bf 01 00 00 00       	mov    $0x1,%edi
  401347:	b8 00 00 00 00       	mov    $0x0,%eax
  40134c:	e8 af fa ff ff       	callq  400e00 <__printf_chk@plt>
  401351:	b8 00 00 00 00       	mov    $0x0,%eax
  401356:	e8 03 09 00 00       	callq  401c5e <check_fail>
  40135b:	8b 15 c3 41 20 00    	mov    0x2041c3(%rip),%edx        # 605524 <cookie>
  401361:	be 72 32 40 00       	mov    $0x403272,%esi
  401366:	bf 01 00 00 00       	mov    $0x1,%edi
  40136b:	b8 00 00 00 00       	mov    $0x0,%eax
  401370:	e8 8b fa ff ff       	callq  400e00 <__printf_chk@plt>
  401375:	48 8b 3d 24 41 20 00 	mov    0x204124(%rip),%rdi        # 6054a0 <buf_offset>
  40137c:	e8 7e 0d 00 00       	callq  4020ff <launch>
  401381:	b8 00 00 00 00       	mov    $0x0,%eax
  401386:	5b                   	pop    %rbx
  401387:	5d                   	pop    %rbp
  401388:	41 5c                	pop    %r12
  40138a:	41 5d                	pop    %r13
  40138c:	41 5e                	pop    %r14
  40138e:	c3                   	retq   

000000000040138f <scramble>:
  40138f:	48 83 ec 38          	sub    $0x38,%rsp
  401393:	64 48 8b 04 25 28 00 	mov    %fs:0x28,%rax
  40139a:	00 00 
  40139c:	48 89 44 24 28       	mov    %rax,0x28(%rsp)
  4013a1:	31 c0                	xor    %eax,%eax
  4013a3:	eb 10                	jmp    4013b5 <scramble+0x26>
  4013a5:	69 d0 92 be 00 00    	imul   $0xbe92,%eax,%edx
  4013ab:	01 fa                	add    %edi,%edx
  4013ad:	89 c1                	mov    %eax,%ecx
  4013af:	89 14 8c             	mov    %edx,(%rsp,%rcx,4)
  4013b2:	83 c0 01             	add    $0x1,%eax
  4013b5:	83 f8 09             	cmp    $0x9,%eax
  4013b8:	76 eb                	jbe    4013a5 <scramble+0x16>
  4013ba:	8b 44 24 20          	mov    0x20(%rsp),%eax
  4013be:	69 c0 b2 36 00 00    	imul   $0x36b2,%eax,%eax
  4013c4:	89 44 24 20          	mov    %eax,0x20(%rsp)
  4013c8:	8b 44 24 14          	mov    0x14(%rsp),%eax
  4013cc:	69 c0 3b 4d 00 00    	imul   $0x4d3b,%eax,%eax
  4013d2:	89 44 24 14          	mov    %eax,0x14(%rsp)
  4013d6:	8b 44 24 0c          	mov    0xc(%rsp),%eax
  4013da:	69 c0 85 41 00 00    	imul   $0x4185,%eax,%eax
  4013e0:	89 44 24 0c          	mov    %eax,0xc(%rsp)
  4013e4:	8b 44 24 10          	mov    0x10(%rsp),%eax
  4013e8:	69 c0 81 51 00 00    	imul   $0x5181,%eax,%eax
  4013ee:	89 44 24 10          	mov    %eax,0x10(%rsp)
  4013f2:	8b 44 24 24          	mov    0x24(%rsp),%eax
  4013f6:	69 c0 da f0 00 00    	imul   $0xf0da,%eax,%eax
  4013fc:	89 44 24 24          	mov    %eax,0x24(%rsp)
  401400:	8b 44 24 10          	mov    0x10(%rsp),%eax
  401404:	69 c0 65 e1 00 00    	imul   $0xe165,%eax,%eax
  40140a:	89 44 24 10          	mov    %eax,0x10(%rsp)
  40140e:	8b 44 24 10          	mov    0x10(%rsp),%eax
  401412:	69 c0 78 8e 00 00    	imul   $0x8e78,%eax,%eax
  401418:	89 44 24 10          	mov    %eax,0x10(%rsp)
  40141c:	8b 44 24 1c          	mov    0x1c(%rsp),%eax
  401420:	69 c0 9b 2b 00 00    	imul   $0x2b9b,%eax,%eax
  401426:	89 44 24 1c          	mov    %eax,0x1c(%rsp)
  40142a:	8b 04 24             	mov    (%rsp),%eax
  40142d:	69 c0 2f a9 00 00    	imul   $0xa92f,%eax,%eax
  401433:	89 04 24             	mov    %eax,(%rsp)
  401436:	8b 44 24 20          	mov    0x20(%rsp),%eax
  40143a:	69 c0 7e d9 00 00    	imul   $0xd97e,%eax,%eax
  401440:	89 44 24 20          	mov    %eax,0x20(%rsp)
  401444:	8b 44 24 10          	mov    0x10(%rsp),%eax
  401448:	69 c0 5c 20 00 00    	imul   $0x205c,%eax,%eax
  40144e:	89 44 24 10          	mov    %eax,0x10(%rsp)
  401452:	8b 44 24 08          	mov    0x8(%rsp),%eax
  401456:	69 c0 a6 84 00 00    	imul   $0x84a6,%eax,%eax
  40145c:	89 44 24 08          	mov    %eax,0x8(%rsp)
  401460:	8b 44 24 18          	mov    0x18(%rsp),%eax
  401464:	69 c0 fb 98 00 00    	imul   $0x98fb,%eax,%eax
  40146a:	89 44 24 18          	mov    %eax,0x18(%rsp)
  40146e:	8b 44 24 1c          	mov    0x1c(%rsp),%eax
  401472:	69 c0 9a 0e 00 00    	imul   $0xe9a,%eax,%eax
  401478:	89 44 24 1c          	mov    %eax,0x1c(%rsp)
  40147c:	8b 04 24             	mov    (%rsp),%eax
  40147f:	69 c0 dc 6e 00 00    	imul   $0x6edc,%eax,%eax
  401485:	89 04 24             	mov    %eax,(%rsp)
  401488:	8b 54 24 0c          	mov    0xc(%rsp),%edx
  40148c:	89 d0                	mov    %edx,%eax
  40148e:	c1 e0 07             	shl    $0x7,%eax
  401491:	29 d0                	sub    %edx,%eax
  401493:	89 44 24 0c          	mov    %eax,0xc(%rsp)
  401497:	8b 44 24 1c          	mov    0x1c(%rsp),%eax
  40149b:	69 c0 2a 7e 00 00    	imul   $0x7e2a,%eax,%eax
  4014a1:	89 44 24 1c          	mov    %eax,0x1c(%rsp)
  4014a5:	8b 44 24 24          	mov    0x24(%rsp),%eax
  4014a9:	69 c0 86 0b 00 00    	imul   $0xb86,%eax,%eax
  4014af:	89 44 24 24          	mov    %eax,0x24(%rsp)
  4014b3:	8b 44 24 1c          	mov    0x1c(%rsp),%eax
  4014b7:	69 c0 54 94 00 00    	imul   $0x9454,%eax,%eax
  4014bd:	89 44 24 1c          	mov    %eax,0x1c(%rsp)
  4014c1:	8b 04 24             	mov    (%rsp),%eax
  4014c4:	69 c0 28 fb 00 00    	imul   $0xfb28,%eax,%eax
  4014ca:	89 04 24             	mov    %eax,(%rsp)
  4014cd:	8b 44 24 0c          	mov    0xc(%rsp),%eax
  4014d1:	69 c0 c5 42 00 00    	imul   $0x42c5,%eax,%eax
  4014d7:	89 44 24 0c          	mov    %eax,0xc(%rsp)
  4014db:	8b 44 24 1c          	mov    0x1c(%rsp),%eax
  4014df:	69 c0 4c f4 00 00    	imul   $0xf44c,%eax,%eax
  4014e5:	89 44 24 1c          	mov    %eax,0x1c(%rsp)
  4014e9:	8b 44 24 10          	mov    0x10(%rsp),%eax
  4014ed:	69 c0 f5 18 00 00    	imul   $0x18f5,%eax,%eax
  4014f3:	89 44 24 10          	mov    %eax,0x10(%rsp)
  4014f7:	8b 44 24 1c          	mov    0x1c(%rsp),%eax
  4014fb:	89 c2                	mov    %eax,%edx
  4014fd:	c1 e2 09             	shl    $0x9,%edx
  401500:	c1 e0 0c             	shl    $0xc,%eax
  401503:	29 d0                	sub    %edx,%eax
  401505:	89 44 24 1c          	mov    %eax,0x1c(%rsp)
  401509:	8b 44 24 20          	mov    0x20(%rsp),%eax
  40150d:	69 c0 04 49 00 00    	imul   $0x4904,%eax,%eax
  401513:	89 44 24 20          	mov    %eax,0x20(%rsp)
  401517:	8b 44 24 18          	mov    0x18(%rsp),%eax
  40151b:	69 c0 e5 00 00 00    	imul   $0xe5,%eax,%eax
  401521:	89 44 24 18          	mov    %eax,0x18(%rsp)
  401525:	8b 44 24 14          	mov    0x14(%rsp),%eax
  401529:	69 c0 51 c9 00 00    	imul   $0xc951,%eax,%eax
  40152f:	89 44 24 14          	mov    %eax,0x14(%rsp)
  401533:	8b 44 24 18          	mov    0x18(%rsp),%eax
  401537:	69 c0 48 fa 00 00    	imul   $0xfa48,%eax,%eax
  40153d:	89 44 24 18          	mov    %eax,0x18(%rsp)
  401541:	8b 44 24 20          	mov    0x20(%rsp),%eax
  401545:	69 c0 4e a5 00 00    	imul   $0xa54e,%eax,%eax
  40154b:	89 44 24 20          	mov    %eax,0x20(%rsp)
  40154f:	8b 44 24 10          	mov    0x10(%rsp),%eax
  401553:	69 c0 39 a4 00 00    	imul   $0xa439,%eax,%eax
  401559:	89 44 24 10          	mov    %eax,0x10(%rsp)
  40155d:	8b 44 24 24          	mov    0x24(%rsp),%eax
  401561:	69 c0 4d a4 00 00    	imul   $0xa44d,%eax,%eax
  401567:	89 44 24 24          	mov    %eax,0x24(%rsp)
  40156b:	8b 44 24 0c          	mov    0xc(%rsp),%eax
  40156f:	69 c0 b9 b9 00 00    	imul   $0xb9b9,%eax,%eax
  401575:	89 44 24 0c          	mov    %eax,0xc(%rsp)
  401579:	8b 04 24             	mov    (%rsp),%eax
  40157c:	69 c0 74 f2 00 00    	imul   $0xf274,%eax,%eax
  401582:	89 04 24             	mov    %eax,(%rsp)
  401585:	8b 04 24             	mov    (%rsp),%eax
  401588:	69 c0 27 e2 00 00    	imul   $0xe227,%eax,%eax
  40158e:	89 04 24             	mov    %eax,(%rsp)
  401591:	8b 44 24 04          	mov    0x4(%rsp),%eax
  401595:	69 c0 47 22 00 00    	imul   $0x2247,%eax,%eax
  40159b:	89 44 24 04          	mov    %eax,0x4(%rsp)
  40159f:	8b 44 24 20          	mov    0x20(%rsp),%eax
  4015a3:	69 c0 f6 0b 00 00    	imul   $0xbf6,%eax,%eax
  4015a9:	89 44 24 20          	mov    %eax,0x20(%rsp)
  4015ad:	8b 44 24 18          	mov    0x18(%rsp),%eax
  4015b1:	69 c0 dc b9 00 00    	imul   $0xb9dc,%eax,%eax
  4015b7:	89 44 24 18          	mov    %eax,0x18(%rsp)
  4015bb:	8b 44 24 18          	mov    0x18(%rsp),%eax
  4015bf:	69 c0 4a 36 00 00    	imul   $0x364a,%eax,%eax
  4015c5:	89 44 24 18          	mov    %eax,0x18(%rsp)
  4015c9:	8b 44 24 08          	mov    0x8(%rsp),%eax
  4015cd:	69 c0 2a 20 00 00    	imul   $0x202a,%eax,%eax
  4015d3:	89 44 24 08          	mov    %eax,0x8(%rsp)
  4015d7:	8b 44 24 18          	mov    0x18(%rsp),%eax
  4015db:	69 c0 f7 94 00 00    	imul   $0x94f7,%eax,%eax
  4015e1:	89 44 24 18          	mov    %eax,0x18(%rsp)
  4015e5:	8b 44 24 08          	mov    0x8(%rsp),%eax
  4015e9:	69 c0 c9 2b 00 00    	imul   $0x2bc9,%eax,%eax
  4015ef:	89 44 24 08          	mov    %eax,0x8(%rsp)
  4015f3:	8b 44 24 18          	mov    0x18(%rsp),%eax
  4015f7:	69 c0 8e d2 00 00    	imul   $0xd28e,%eax,%eax
  4015fd:	89 44 24 18          	mov    %eax,0x18(%rsp)
  401601:	8b 44 24 0c          	mov    0xc(%rsp),%eax
  401605:	69 c0 67 1b 00 00    	imul   $0x1b67,%eax,%eax
  40160b:	89 44 24 0c          	mov    %eax,0xc(%rsp)
  40160f:	8b 44 24 14          	mov    0x14(%rsp),%eax
  401613:	69 c0 66 57 00 00    	imul   $0x5766,%eax,%eax
  401619:	89 44 24 14          	mov    %eax,0x14(%rsp)
  40161d:	8b 04 24             	mov    (%rsp),%eax
  401620:	69 c0 b9 d5 00 00    	imul   $0xd5b9,%eax,%eax
  401626:	89 04 24             	mov    %eax,(%rsp)
  401629:	8b 44 24 10          	mov    0x10(%rsp),%eax
  40162d:	69 c0 e0 d4 00 00    	imul   $0xd4e0,%eax,%eax
  401633:	89 44 24 10          	mov    %eax,0x10(%rsp)
  401637:	8b 44 24 04          	mov    0x4(%rsp),%eax
  40163b:	69 c0 59 a0 00 00    	imul   $0xa059,%eax,%eax
  401641:	89 44 24 04          	mov    %eax,0x4(%rsp)
  401645:	8b 44 24 1c          	mov    0x1c(%rsp),%eax
  401649:	69 c0 7e 9c 00 00    	imul   $0x9c7e,%eax,%eax
  40164f:	89 44 24 1c          	mov    %eax,0x1c(%rsp)
  401653:	8b 44 24 0c          	mov    0xc(%rsp),%eax
  401657:	69 c0 d9 53 00 00    	imul   $0x53d9,%eax,%eax
  40165d:	89 44 24 0c          	mov    %eax,0xc(%rsp)
  401661:	8b 44 24 04          	mov    0x4(%rsp),%eax
  401665:	69 c0 95 19 00 00    	imul   $0x1995,%eax,%eax
  40166b:	89 44 24 04          	mov    %eax,0x4(%rsp)
  40166f:	8b 44 24 1c          	mov    0x1c(%rsp),%eax
  401673:	69 c0 f4 5b 00 00    	imul   $0x5bf4,%eax,%eax
  401679:	89 44 24 1c          	mov    %eax,0x1c(%rsp)
  40167d:	8b 44 24 08          	mov    0x8(%rsp),%eax
  401681:	69 c0 2d db 00 00    	imul   $0xdb2d,%eax,%eax
  401687:	89 44 24 08          	mov    %eax,0x8(%rsp)
  40168b:	8b 44 24 1c          	mov    0x1c(%rsp),%eax
  40168f:	69 c0 cd 25 00 00    	imul   $0x25cd,%eax,%eax
  401695:	89 44 24 1c          	mov    %eax,0x1c(%rsp)
  401699:	8b 44 24 18          	mov    0x18(%rsp),%eax
  40169d:	69 c0 a2 e8 00 00    	imul   $0xe8a2,%eax,%eax
  4016a3:	89 44 24 18          	mov    %eax,0x18(%rsp)
  4016a7:	8b 44 24 14          	mov    0x14(%rsp),%eax
  4016ab:	69 c0 c2 55 00 00    	imul   $0x55c2,%eax,%eax
  4016b1:	89 44 24 14          	mov    %eax,0x14(%rsp)
  4016b5:	8b 44 24 0c          	mov    0xc(%rsp),%eax
  4016b9:	69 c0 26 af 00 00    	imul   $0xaf26,%eax,%eax
  4016bf:	89 44 24 0c          	mov    %eax,0xc(%rsp)
  4016c3:	8b 44 24 1c          	mov    0x1c(%rsp),%eax
  4016c7:	69 c0 75 13 00 00    	imul   $0x1375,%eax,%eax
  4016cd:	89 44 24 1c          	mov    %eax,0x1c(%rsp)
  4016d1:	8b 44 24 24          	mov    0x24(%rsp),%eax
  4016d5:	69 c0 a5 76 00 00    	imul   $0x76a5,%eax,%eax
  4016db:	89 44 24 24          	mov    %eax,0x24(%rsp)
  4016df:	8b 44 24 14          	mov    0x14(%rsp),%eax
  4016e3:	69 c0 8c 4e 00 00    	imul   $0x4e8c,%eax,%eax
  4016e9:	89 44 24 14          	mov    %eax,0x14(%rsp)
  4016ed:	8b 44 24 0c          	mov    0xc(%rsp),%eax
  4016f1:	69 c0 92 ef 00 00    	imul   $0xef92,%eax,%eax
  4016f7:	89 44 24 0c          	mov    %eax,0xc(%rsp)
  4016fb:	8b 44 24 18          	mov    0x18(%rsp),%eax
  4016ff:	69 c0 ab c9 00 00    	imul   $0xc9ab,%eax,%eax
  401705:	89 44 24 18          	mov    %eax,0x18(%rsp)
  401709:	8b 44 24 10          	mov    0x10(%rsp),%eax
  40170d:	69 c0 4c 9e 00 00    	imul   $0x9e4c,%eax,%eax
  401713:	89 44 24 10          	mov    %eax,0x10(%rsp)
  401717:	8b 44 24 20          	mov    0x20(%rsp),%eax
  40171b:	69 c0 0c 53 00 00    	imul   $0x530c,%eax,%eax
  401721:	89 44 24 20          	mov    %eax,0x20(%rsp)
  401725:	8b 44 24 04          	mov    0x4(%rsp),%eax
  401729:	69 c0 d1 fc 00 00    	imul   $0xfcd1,%eax,%eax
  40172f:	89 44 24 04          	mov    %eax,0x4(%rsp)
  401733:	8b 04 24             	mov    (%rsp),%eax
  401736:	69 c0 6f b9 00 00    	imul   $0xb96f,%eax,%eax
  40173c:	89 04 24             	mov    %eax,(%rsp)
  40173f:	8b 44 24 1c          	mov    0x1c(%rsp),%eax
  401743:	69 c0 06 1d 00 00    	imul   $0x1d06,%eax,%eax
  401749:	89 44 24 1c          	mov    %eax,0x1c(%rsp)
  40174d:	8b 44 24 10          	mov    0x10(%rsp),%eax
  401751:	69 c0 f1 3b 00 00    	imul   $0x3bf1,%eax,%eax
  401757:	89 44 24 10          	mov    %eax,0x10(%rsp)
  40175b:	8b 44 24 14          	mov    0x14(%rsp),%eax
  40175f:	69 c0 33 2b 00 00    	imul   $0x2b33,%eax,%eax
  401765:	89 44 24 14          	mov    %eax,0x14(%rsp)
  401769:	8b 04 24             	mov    (%rsp),%eax
  40176c:	69 c0 ab 09 00 00    	imul   $0x9ab,%eax,%eax
  401772:	89 04 24             	mov    %eax,(%rsp)
  401775:	8b 44 24 04          	mov    0x4(%rsp),%eax
  401779:	69 c0 b7 a7 00 00    	imul   $0xa7b7,%eax,%eax
  40177f:	89 44 24 04          	mov    %eax,0x4(%rsp)
  401783:	8b 44 24 14          	mov    0x14(%rsp),%eax
  401787:	69 c0 6f 91 00 00    	imul   $0x916f,%eax,%eax
  40178d:	89 44 24 14          	mov    %eax,0x14(%rsp)
  401791:	8b 44 24 14          	mov    0x14(%rsp),%eax
  401795:	69 c0 f8 e0 00 00    	imul   $0xe0f8,%eax,%eax
  40179b:	89 44 24 14          	mov    %eax,0x14(%rsp)
  40179f:	8b 44 24 1c          	mov    0x1c(%rsp),%eax
  4017a3:	69 c0 92 d8 00 00    	imul   $0xd892,%eax,%eax
  4017a9:	89 44 24 1c          	mov    %eax,0x1c(%rsp)
  4017ad:	8b 44 24 10          	mov    0x10(%rsp),%eax
  4017b1:	69 c0 c2 d3 00 00    	imul   $0xd3c2,%eax,%eax
  4017b7:	89 44 24 10          	mov    %eax,0x10(%rsp)
  4017bb:	8b 44 24 08          	mov    0x8(%rsp),%eax
  4017bf:	69 c0 a9 25 00 00    	imul   $0x25a9,%eax,%eax
  4017c5:	89 44 24 08          	mov    %eax,0x8(%rsp)
  4017c9:	8b 44 24 20          	mov    0x20(%rsp),%eax
  4017cd:	69 c0 64 4b 00 00    	imul   $0x4b64,%eax,%eax
  4017d3:	89 44 24 20          	mov    %eax,0x20(%rsp)
  4017d7:	8b 44 24 20          	mov    0x20(%rsp),%eax
  4017db:	69 c0 c7 87 00 00    	imul   $0x87c7,%eax,%eax
  4017e1:	89 44 24 20          	mov    %eax,0x20(%rsp)
  4017e5:	8b 44 24 04          	mov    0x4(%rsp),%eax
  4017e9:	69 c0 59 59 00 00    	imul   $0x5959,%eax,%eax
  4017ef:	89 44 24 04          	mov    %eax,0x4(%rsp)
  4017f3:	8b 44 24 20          	mov    0x20(%rsp),%eax
  4017f7:	69 c0 7a 24 00 00    	imul   $0x247a,%eax,%eax
  4017fd:	89 44 24 20          	mov    %eax,0x20(%rsp)
  401801:	8b 44 24 04          	mov    0x4(%rsp),%eax
  401805:	69 c0 b8 81 00 00    	imul   $0x81b8,%eax,%eax
  40180b:	89 44 24 04          	mov    %eax,0x4(%rsp)
  40180f:	8b 44 24 1c          	mov    0x1c(%rsp),%eax
  401813:	69 c0 91 6c 00 00    	imul   $0x6c91,%eax,%eax
  401819:	89 44 24 1c          	mov    %eax,0x1c(%rsp)
  40181d:	8b 04 24             	mov    (%rsp),%eax
  401820:	69 c0 4c f3 00 00    	imul   $0xf34c,%eax,%eax
  401826:	89 04 24             	mov    %eax,(%rsp)
  401829:	8b 44 24 04          	mov    0x4(%rsp),%eax
  40182d:	69 c0 f3 96 00 00    	imul   $0x96f3,%eax,%eax
  401833:	89 44 24 04          	mov    %eax,0x4(%rsp)
  401837:	8b 44 24 10          	mov    0x10(%rsp),%eax
  40183b:	69 c0 41 0a 00 00    	imul   $0xa41,%eax,%eax
  401841:	89 44 24 10          	mov    %eax,0x10(%rsp)
  401845:	8b 44 24 20          	mov    0x20(%rsp),%eax
  401849:	69 c0 55 32 00 00    	imul   $0x3255,%eax,%eax
  40184f:	89 44 24 20          	mov    %eax,0x20(%rsp)
  401853:	8b 44 24 24          	mov    0x24(%rsp),%eax
  401857:	8d 14 40             	lea    (%rax,%rax,2),%edx
  40185a:	8d 04 95 00 00 00 00 	lea    0x0(,%rdx,4),%eax
  401861:	89 44 24 24          	mov    %eax,0x24(%rsp)
  401865:	8b 44 24 10          	mov    0x10(%rsp),%eax
  401869:	69 c0 d6 08 00 00    	imul   $0x8d6,%eax,%eax
  40186f:	89 44 24 10          	mov    %eax,0x10(%rsp)
  401873:	8b 44 24 20          	mov    0x20(%rsp),%eax
  401877:	69 c0 aa 68 00 00    	imul   $0x68aa,%eax,%eax
  40187d:	89 44 24 20          	mov    %eax,0x20(%rsp)
  401881:	8b 44 24 10          	mov    0x10(%rsp),%eax
  401885:	69 c0 a2 38 00 00    	imul   $0x38a2,%eax,%eax
  40188b:	89 44 24 10          	mov    %eax,0x10(%rsp)
  40188f:	8b 44 24 14          	mov    0x14(%rsp),%eax
  401893:	69 c0 87 08 00 00    	imul   $0x887,%eax,%eax
  401899:	89 44 24 14          	mov    %eax,0x14(%rsp)
  40189d:	8b 44 24 0c          	mov    0xc(%rsp),%eax
  4018a1:	89 c2                	mov    %eax,%edx
  4018a3:	c1 e2 06             	shl    $0x6,%edx
  4018a6:	c1 e0 10             	shl    $0x10,%eax
  4018a9:	29 d0                	sub    %edx,%eax
  4018ab:	89 44 24 0c          	mov    %eax,0xc(%rsp)
  4018af:	ba 00 00 00 00       	mov    $0x0,%edx
  4018b4:	b8 00 00 00 00       	mov    $0x0,%eax
  4018b9:	eb 0a                	jmp    4018c5 <scramble+0x536>
  4018bb:	89 d1                	mov    %edx,%ecx
  4018bd:	8b 0c 8c             	mov    (%rsp,%rcx,4),%ecx
  4018c0:	01 c8                	add    %ecx,%eax
  4018c2:	83 c2 01             	add    $0x1,%edx
  4018c5:	83 fa 09             	cmp    $0x9,%edx
  4018c8:	76 f1                	jbe    4018bb <scramble+0x52c>
  4018ca:	48 8b 74 24 28       	mov    0x28(%rsp),%rsi
  4018cf:	64 48 33 34 25 28 00 	xor    %fs:0x28,%rsi
  4018d6:	00 00 
  4018d8:	74 05                	je     4018df <scramble+0x550>
  4018da:	e8 11 f4 ff ff       	callq  400cf0 <__stack_chk_fail@plt>
  4018df:	48 83 c4 38          	add    $0x38,%rsp
  4018e3:	c3                   	retq   

00000000004018e4 <getbuf>:
  4018e4:	48 83 ec 38          	sub    $0x38,%rsp
  4018e8:	48 89 e7             	mov    %rsp,%rdi
  4018eb:	e8 a3 03 00 00       	callq  401c93 <Gets>
  4018f0:	b8 01 00 00 00       	mov    $0x1,%eax
  4018f5:	48 83 c4 38          	add    $0x38,%rsp
  4018f9:	c3                   	retq   

00000000004018fa <touch1>:
  4018fa:	48 83 ec 08          	sub    $0x8,%rsp
  4018fe:	c7 05 14 3c 20 00 01 	movl   $0x1,0x203c14(%rip)        # 60551c <vlevel>
  401905:	00 00 00 
  401908:	bf 66 33 40 00       	mov    $0x403366,%edi
  40190d:	e8 be f3 ff ff       	callq  400cd0 <puts@plt>
  401912:	bf 01 00 00 00       	mov    $0x1,%edi
  401917:	e8 bc 05 00 00       	callq  401ed8 <validate>
  40191c:	bf 00 00 00 00       	mov    $0x0,%edi
  401921:	e8 2a f5 ff ff       	callq  400e50 <exit@plt>

0000000000401926 <touch2>:
  401926:	48 83 ec 08          	sub    $0x8,%rsp
  40192a:	89 fa                	mov    %edi,%edx
  40192c:	c7 05 e6 3b 20 00 02 	movl   $0x2,0x203be6(%rip)        # 60551c <vlevel>
  401933:	00 00 00 
  401936:	39 3d e8 3b 20 00    	cmp    %edi,0x203be8(%rip)        # 605524 <cookie>
  40193c:	75 20                	jne    40195e <touch2+0x38>
  40193e:	be 88 33 40 00       	mov    $0x403388,%esi
  401943:	bf 01 00 00 00       	mov    $0x1,%edi
  401948:	b8 00 00 00 00       	mov    $0x0,%eax
  40194d:	e8 ae f4 ff ff       	callq  400e00 <__printf_chk@plt>
  401952:	bf 02 00 00 00       	mov    $0x2,%edi
  401957:	e8 7c 05 00 00       	callq  401ed8 <validate>
  40195c:	eb 1e                	jmp    40197c <touch2+0x56>
  40195e:	be b0 33 40 00       	mov    $0x4033b0,%esi
  401963:	bf 01 00 00 00       	mov    $0x1,%edi
  401968:	b8 00 00 00 00       	mov    $0x0,%eax
  40196d:	e8 8e f4 ff ff       	callq  400e00 <__printf_chk@plt>
  401972:	bf 02 00 00 00       	mov    $0x2,%edi
  401977:	e8 1e 06 00 00       	callq  401f9a <fail>
  40197c:	bf 00 00 00 00       	mov    $0x0,%edi
  401981:	e8 ca f4 ff ff       	callq  400e50 <exit@plt>

0000000000401986 <hexmatch>:
  401986:	41 54                	push   %r12
  401988:	55                   	push   %rbp
  401989:	53                   	push   %rbx
  40198a:	48 83 c4 80          	add    $0xffffffffffffff80,%rsp
  40198e:	89 fd                	mov    %edi,%ebp
  401990:	48 89 f3             	mov    %rsi,%rbx
  401993:	64 48 8b 04 25 28 00 	mov    %fs:0x28,%rax
  40199a:	00 00 
  40199c:	48 89 44 24 78       	mov    %rax,0x78(%rsp)
  4019a1:	31 c0                	xor    %eax,%eax
  4019a3:	e8 18 f4 ff ff       	callq  400dc0 <random@plt>
  4019a8:	48 89 c1             	mov    %rax,%rcx
  4019ab:	48 ba 0b d7 a3 70 3d 	movabs $0xa3d70a3d70a3d70b,%rdx
  4019b2:	0a d7 a3 
  4019b5:	48 f7 ea             	imul   %rdx
  4019b8:	48 01 ca             	add    %rcx,%rdx
  4019bb:	48 c1 fa 06          	sar    $0x6,%rdx
  4019bf:	48 89 c8             	mov    %rcx,%rax
  4019c2:	48 c1 f8 3f          	sar    $0x3f,%rax
  4019c6:	48 29 c2             	sub    %rax,%rdx
  4019c9:	48 8d 04 92          	lea    (%rdx,%rdx,4),%rax
  4019cd:	48 8d 14 80          	lea    (%rax,%rax,4),%rdx
  4019d1:	48 8d 04 95 00 00 00 	lea    0x0(,%rdx,4),%rax
  4019d8:	00 
  4019d9:	48 29 c1             	sub    %rax,%rcx
  4019dc:	4c 8d 24 0c          	lea    (%rsp,%rcx,1),%r12
  4019e0:	41 89 e8             	mov    %ebp,%r8d
  4019e3:	b9 83 33 40 00       	mov    $0x403383,%ecx
  4019e8:	48 c7 c2 ff ff ff ff 	mov    $0xffffffffffffffff,%rdx
  4019ef:	be 01 00 00 00       	mov    $0x1,%esi
  4019f4:	4c 89 e7             	mov    %r12,%rdi
  4019f7:	b8 00 00 00 00       	mov    $0x0,%eax
  4019fc:	e8 7f f4 ff ff       	callq  400e80 <__sprintf_chk@plt>
  401a01:	ba 09 00 00 00       	mov    $0x9,%edx
  401a06:	4c 89 e6             	mov    %r12,%rsi
  401a09:	48 89 df             	mov    %rbx,%rdi
  401a0c:	e8 9f f2 ff ff       	callq  400cb0 <strncmp@plt>
  401a11:	85 c0                	test   %eax,%eax
  401a13:	0f 94 c0             	sete   %al
  401a16:	48 8b 5c 24 78       	mov    0x78(%rsp),%rbx
  401a1b:	64 48 33 1c 25 28 00 	xor    %fs:0x28,%rbx
  401a22:	00 00 
  401a24:	74 05                	je     401a2b <hexmatch+0xa5>
  401a26:	e8 c5 f2 ff ff       	callq  400cf0 <__stack_chk_fail@plt>
  401a2b:	0f b6 c0             	movzbl %al,%eax
  401a2e:	48 83 ec 80          	sub    $0xffffffffffffff80,%rsp
  401a32:	5b                   	pop    %rbx
  401a33:	5d                   	pop    %rbp
  401a34:	41 5c                	pop    %r12
  401a36:	c3                   	retq   

0000000000401a37 <touch3>:
  401a37:	53                   	push   %rbx
  401a38:	48 89 fb             	mov    %rdi,%rbx
  401a3b:	c7 05 d7 3a 20 00 03 	movl   $0x3,0x203ad7(%rip)        # 60551c <vlevel>
  401a42:	00 00 00 
  401a45:	48 89 fe             	mov    %rdi,%rsi
  401a48:	8b 3d d6 3a 20 00    	mov    0x203ad6(%rip),%edi        # 605524 <cookie>
  401a4e:	e8 33 ff ff ff       	callq  401986 <hexmatch>
  401a53:	85 c0                	test   %eax,%eax
  401a55:	74 23                	je     401a7a <touch3+0x43>
  401a57:	48 89 da             	mov    %rbx,%rdx
  401a5a:	be d8 33 40 00       	mov    $0x4033d8,%esi
  401a5f:	bf 01 00 00 00       	mov    $0x1,%edi
  401a64:	b8 00 00 00 00       	mov    $0x0,%eax
  401a69:	e8 92 f3 ff ff       	callq  400e00 <__printf_chk@plt>
  401a6e:	bf 03 00 00 00       	mov    $0x3,%edi
  401a73:	e8 60 04 00 00       	callq  401ed8 <validate>
  401a78:	eb 21                	jmp    401a9b <touch3+0x64>
  401a7a:	48 89 da             	mov    %rbx,%rdx
  401a7d:	be 00 34 40 00       	mov    $0x403400,%esi
  401a82:	bf 01 00 00 00       	mov    $0x1,%edi
  401a87:	b8 00 00 00 00       	mov    $0x0,%eax
  401a8c:	e8 6f f3 ff ff       	callq  400e00 <__printf_chk@plt>
  401a91:	bf 03 00 00 00       	mov    $0x3,%edi
  401a96:	e8 ff 04 00 00       	callq  401f9a <fail>
  401a9b:	bf 00 00 00 00       	mov    $0x0,%edi
  401aa0:	e8 ab f3 ff ff       	callq  400e50 <exit@plt>

0000000000401aa5 <test>:
  401aa5:	48 83 ec 08          	sub    $0x8,%rsp
  401aa9:	b8 00 00 00 00       	mov    $0x0,%eax
  401aae:	e8 31 fe ff ff       	callq  4018e4 <getbuf>
  401ab3:	89 c2                	mov    %eax,%edx
  401ab5:	be 28 34 40 00       	mov    $0x403428,%esi
  401aba:	bf 01 00 00 00       	mov    $0x1,%edi
  401abf:	b8 00 00 00 00       	mov    $0x0,%eax
  401ac4:	e8 37 f3 ff ff       	callq  400e00 <__printf_chk@plt>
  401ac9:	48 83 c4 08          	add    $0x8,%rsp
  401acd:	c3                   	retq   

0000000000401ace <start_farm>:
  401ace:	b8 01 00 00 00       	mov    $0x1,%eax
  401ad3:	c3                   	retq   

0000000000401ad4 <getval_457>:
  401ad4:	b8 fb 48 8d c7       	mov    $0xc78d48fb,%eax
  401ad9:	c3                   	retq   

0000000000401ada <getval_298>:
  401ada:	b8 0e 86 58 94       	mov    $0x9458860e,%eax
  401adf:	c3                   	retq   

0000000000401ae0 <addval_289>:
  401ae0:	8d 87 35 48 89 c7    	lea    -0x3876b7cb(%rdi),%eax
  401ae6:	c3                   	retq   

0000000000401ae7 <addval_225>:
  401ae7:	8d 87 a2 48 81 c7    	lea    -0x387eb75e(%rdi),%eax
  401aed:	c3                   	retq   

0000000000401aee <addval_283>:
  401aee:	8d 87 09 19 58 90    	lea    -0x6fa7e6f7(%rdi),%eax
  401af4:	c3                   	retq   

0000000000401af5 <getval_497>:
  401af5:	b8 d8 90 90 90       	mov    $0x909090d8,%eax
  401afa:	c3                   	retq   

0000000000401afb <addval_312>:
  401afb:	8d 87 48 89 c7 c3    	lea    -0x3c3876b8(%rdi),%eax
  401b01:	c3                   	retq   

0000000000401b02 <setval_394>:
  401b02:	c7 07 2b 0d 58 90    	movl   $0x90580d2b,(%rdi)
  401b08:	c3                   	retq   

0000000000401b09 <mid_farm>:
  401b09:	b8 01 00 00 00       	mov    $0x1,%eax
  401b0e:	c3                   	retq   

0000000000401b0f <add_xy>:
  401b0f:	48 8d 04 37          	lea    (%rdi,%rsi,1),%rax
  401b13:	c3                   	retq   

0000000000401b14 <addval_102>:
  401b14:	8d 87 89 ce 94 c9    	lea    -0x366b3177(%rdi),%eax
  401b1a:	c3                   	retq   

0000000000401b1b <setval_326>:
  401b1b:	c7 07 b2 36 89 d1    	movl   $0xd18936b2,(%rdi)
  401b21:	c3                   	retq   

0000000000401b22 <addval_350>:
  401b22:	8d 87 4a 89 e0 c3    	lea    -0x3c1f76b6(%rdi),%eax
  401b28:	c3                   	retq   

0000000000401b29 <setval_461>:
  401b29:	c7 07 48 89 e0 c7    	movl   $0xc7e08948,(%rdi)
  401b2f:	c3                   	retq   

0000000000401b30 <getval_113>:
  401b30:	b8 88 c2 08 db       	mov    $0xdb08c288,%eax
  401b35:	c3                   	retq   

0000000000401b36 <addval_487>:
  401b36:	8d 87 89 ce 60 c0    	lea    -0x3f9f3177(%rdi),%eax
  401b3c:	c3                   	retq   

0000000000401b3d <addval_310>:
  401b3d:	8d 87 48 89 e0 c3    	lea    -0x3c1f76b8(%rdi),%eax
  401b43:	c3                   	retq   

0000000000401b44 <addval_335>:
  401b44:	8d 87 89 c2 30 c9    	lea    -0x36cf3d77(%rdi),%eax
  401b4a:	c3                   	retq   

0000000000401b4b <addval_199>:
  401b4b:	8d 87 48 89 e0 92    	lea    -0x6d1f76b8(%rdi),%eax
  401b51:	c3                   	retq   

0000000000401b52 <addval_183>:
  401b52:	8d 87 89 d1 30 c9    	lea    -0x36cf2e77(%rdi),%eax
  401b58:	c3                   	retq   

0000000000401b59 <setval_209>:
  401b59:	c7 07 89 ce 28 c0    	movl   $0xc028ce89,(%rdi)
  401b5f:	c3                   	retq   

0000000000401b60 <addval_489>:
  401b60:	8d 87 89 c2 08 c0    	lea    -0x3ff73d77(%rdi),%eax
  401b66:	c3                   	retq   

0000000000401b67 <addval_343>:
  401b67:	8d 87 48 89 e0 c2    	lea    -0x3d1f76b8(%rdi),%eax
  401b6d:	c3                   	retq   

0000000000401b6e <addval_481>:
  401b6e:	8d 87 89 d1 90 c2    	lea    -0x3d6f2e77(%rdi),%eax
  401b74:	c3                   	retq   

0000000000401b75 <addval_432>:
  401b75:	8d 87 c9 d1 c3 60    	lea    0x60c3d1c9(%rdi),%eax
  401b7b:	c3                   	retq   

0000000000401b7c <getval_415>:
  401b7c:	b8 89 c2 84 db       	mov    $0xdb84c289,%eax
  401b81:	c3                   	retq   

0000000000401b82 <addval_157>:
  401b82:	8d 87 89 c2 92 90    	lea    -0x6f6d3d77(%rdi),%eax
  401b88:	c3                   	retq   

0000000000401b89 <setval_321>:
  401b89:	c7 07 25 40 89 e0    	movl   $0xe0894025,(%rdi)
  401b8f:	c3                   	retq   

0000000000401b90 <addval_133>:
  401b90:	8d 87 6b 48 89 e0    	lea    -0x1f76b795(%rdi),%eax
  401b96:	c3                   	retq   

0000000000401b97 <getval_340>:
  401b97:	b8 89 ce 20 d2       	mov    $0xd220ce89,%eax
  401b9c:	c3                   	retq   

0000000000401b9d <setval_347>:
  401b9d:	c7 07 48 89 e0 c1    	movl   $0xc1e08948,(%rdi)
  401ba3:	c3                   	retq   

0000000000401ba4 <getval_117>:
  401ba4:	b8 a9 d1 38 c0       	mov    $0xc038d1a9,%eax
  401ba9:	c3                   	retq   

0000000000401baa <addval_192>:
  401baa:	8d 87 89 d1 20 c9    	lea    -0x36df2e77(%rdi),%eax
  401bb0:	c3                   	retq   

0000000000401bb1 <setval_226>:
  401bb1:	c7 07 09 c2 08 c9    	movl   $0xc908c209,(%rdi)
  401bb7:	c3                   	retq   

0000000000401bb8 <addval_125>:
  401bb8:	8d 87 89 ce 08 c0    	lea    -0x3ff73177(%rdi),%eax
  401bbe:	c3                   	retq   

0000000000401bbf <getval_473>:
  401bbf:	b8 a9 c2 20 d2       	mov    $0xd220c2a9,%eax
  401bc4:	c3                   	retq   

0000000000401bc5 <getval_185>:
  401bc5:	b8 89 ce 18 d2       	mov    $0xd218ce89,%eax
  401bca:	c3                   	retq   

0000000000401bcb <addval_155>:
  401bcb:	8d 87 89 d1 78 db    	lea    -0x24872e77(%rdi),%eax
  401bd1:	c3                   	retq   

0000000000401bd2 <getval_182>:
  401bd2:	b8 89 ce c4 db       	mov    $0xdbc4ce89,%eax
  401bd7:	c3                   	retq   

0000000000401bd8 <addval_108>:
  401bd8:	8d 87 89 ce 60 c0    	lea    -0x3f9f3177(%rdi),%eax
  401bde:	c3                   	retq   

0000000000401bdf <addval_319>:
  401bdf:	8d 87 89 d1 60 c0    	lea    -0x3f9f2e77(%rdi),%eax
  401be5:	c3                   	retq   

0000000000401be6 <setval_485>:
  401be6:	c7 07 89 c2 18 db    	movl   $0xdb18c289,(%rdi)
  401bec:	c3                   	retq   

0000000000401bed <end_farm>:
  401bed:	b8 01 00 00 00       	mov    $0x1,%eax
  401bf2:	c3                   	retq   

0000000000401bf3 <save_char>:
  401bf3:	8b 05 4b 45 20 00    	mov    0x20454b(%rip),%eax        # 606144 <gets_cnt>
  401bf9:	3d ff 03 00 00       	cmp    $0x3ff,%eax
  401bfe:	7f 49                	jg     401c49 <save_char+0x56>
  401c00:	8d 14 40             	lea    (%rax,%rax,2),%edx
  401c03:	89 f9                	mov    %edi,%ecx
  401c05:	c0 e9 04             	shr    $0x4,%cl
  401c08:	83 e1 0f             	and    $0xf,%ecx
  401c0b:	0f b6 b1 50 37 40 00 	movzbl 0x403750(%rcx),%esi
  401c12:	48 63 ca             	movslq %edx,%rcx
  401c15:	40 88 b1 40 55 60 00 	mov    %sil,0x605540(%rcx)
  401c1c:	8d 4a 01             	lea    0x1(%rdx),%ecx
  401c1f:	83 e7 0f             	and    $0xf,%edi
  401c22:	0f b6 b7 50 37 40 00 	movzbl 0x403750(%rdi),%esi
  401c29:	48 63 c9             	movslq %ecx,%rcx
  401c2c:	40 88 b1 40 55 60 00 	mov    %sil,0x605540(%rcx)
  401c33:	83 c2 02             	add    $0x2,%edx
  401c36:	48 63 d2             	movslq %edx,%rdx
  401c39:	c6 82 40 55 60 00 20 	movb   $0x20,0x605540(%rdx)
  401c40:	83 c0 01             	add    $0x1,%eax
  401c43:	89 05 fb 44 20 00    	mov    %eax,0x2044fb(%rip)        # 606144 <gets_cnt>
  401c49:	f3 c3                	repz retq 

0000000000401c4b <save_term>:
  401c4b:	8b 05 f3 44 20 00    	mov    0x2044f3(%rip),%eax        # 606144 <gets_cnt>
  401c51:	8d 04 40             	lea    (%rax,%rax,2),%eax
  401c54:	48 98                	cltq   
  401c56:	c6 80 40 55 60 00 00 	movb   $0x0,0x605540(%rax)
  401c5d:	c3                   	retq   

0000000000401c5e <check_fail>:
  401c5e:	48 83 ec 08          	sub    $0x8,%rsp
  401c62:	0f be 15 df 44 20 00 	movsbl 0x2044df(%rip),%edx        # 606148 <target_prefix>
  401c69:	41 b8 40 55 60 00    	mov    $0x605540,%r8d
  401c6f:	8b 0d a3 38 20 00    	mov    0x2038a3(%rip),%ecx        # 605518 <check_level>
  401c75:	be 4b 34 40 00       	mov    $0x40344b,%esi
  401c7a:	bf 01 00 00 00       	mov    $0x1,%edi
  401c7f:	b8 00 00 00 00       	mov    $0x0,%eax
  401c84:	e8 77 f1 ff ff       	callq  400e00 <__printf_chk@plt>
  401c89:	bf 01 00 00 00       	mov    $0x1,%edi
  401c8e:	e8 bd f1 ff ff       	callq  400e50 <exit@plt>

0000000000401c93 <Gets>:
  401c93:	41 54                	push   %r12
  401c95:	55                   	push   %rbp
  401c96:	53                   	push   %rbx
  401c97:	49 89 fc             	mov    %rdi,%r12
  401c9a:	c7 05 a0 44 20 00 00 	movl   $0x0,0x2044a0(%rip)        # 606144 <gets_cnt>
  401ca1:	00 00 00 
  401ca4:	48 89 fb             	mov    %rdi,%rbx
  401ca7:	eb 11                	jmp    401cba <Gets+0x27>
  401ca9:	48 8d 6b 01          	lea    0x1(%rbx),%rbp
  401cad:	88 03                	mov    %al,(%rbx)
  401caf:	0f b6 f8             	movzbl %al,%edi
  401cb2:	e8 3c ff ff ff       	callq  401bf3 <save_char>
  401cb7:	48 89 eb             	mov    %rbp,%rbx
  401cba:	48 8b 3d 4f 38 20 00 	mov    0x20384f(%rip),%rdi        # 605510 <infile>
  401cc1:	e8 0a f1 ff ff       	callq  400dd0 <_IO_getc@plt>
  401cc6:	83 f8 ff             	cmp    $0xffffffff,%eax
  401cc9:	74 05                	je     401cd0 <Gets+0x3d>
  401ccb:	83 f8 0a             	cmp    $0xa,%eax
  401cce:	75 d9                	jne    401ca9 <Gets+0x16>
  401cd0:	c6 03 00             	movb   $0x0,(%rbx)
  401cd3:	b8 00 00 00 00       	mov    $0x0,%eax
  401cd8:	e8 6e ff ff ff       	callq  401c4b <save_term>
  401cdd:	4c 89 e0             	mov    %r12,%rax
  401ce0:	5b                   	pop    %rbx
  401ce1:	5d                   	pop    %rbp
  401ce2:	41 5c                	pop    %r12
  401ce4:	c3                   	retq   

0000000000401ce5 <notify_server>:
  401ce5:	53                   	push   %rbx
  401ce6:	48 81 ec 10 40 00 00 	sub    $0x4010,%rsp
  401ced:	64 48 8b 04 25 28 00 	mov    %fs:0x28,%rax
  401cf4:	00 00 
  401cf6:	48 89 84 24 08 40 00 	mov    %rax,0x4008(%rsp)
  401cfd:	00 
  401cfe:	31 c0                	xor    %eax,%eax
  401d00:	83 3d 21 38 20 00 00 	cmpl   $0x0,0x203821(%rip)        # 605528 <is_checker>
  401d07:	0f 85 aa 01 00 00    	jne    401eb7 <notify_server+0x1d2>
  401d0d:	89 fb                	mov    %edi,%ebx
  401d0f:	8b 05 2f 44 20 00    	mov    0x20442f(%rip),%eax        # 606144 <gets_cnt>
  401d15:	83 c0 64             	add    $0x64,%eax
  401d18:	3d 00 20 00 00       	cmp    $0x2000,%eax
  401d1d:	7e 1e                	jle    401d3d <notify_server+0x58>
  401d1f:	be 80 35 40 00       	mov    $0x403580,%esi
  401d24:	bf 01 00 00 00       	mov    $0x1,%edi
  401d29:	b8 00 00 00 00       	mov    $0x0,%eax
  401d2e:	e8 cd f0 ff ff       	callq  400e00 <__printf_chk@plt>
  401d33:	bf 01 00 00 00       	mov    $0x1,%edi
  401d38:	e8 13 f1 ff ff       	callq  400e50 <exit@plt>
  401d3d:	0f be 05 04 44 20 00 	movsbl 0x204404(%rip),%eax        # 606148 <target_prefix>
  401d44:	83 3d 5d 37 20 00 00 	cmpl   $0x0,0x20375d(%rip)        # 6054a8 <notify>
  401d4b:	74 08                	je     401d55 <notify_server+0x70>
  401d4d:	8b 15 cd 37 20 00    	mov    0x2037cd(%rip),%edx        # 605520 <authkey>
  401d53:	eb 05                	jmp    401d5a <notify_server+0x75>
  401d55:	ba ff ff ff ff       	mov    $0xffffffff,%edx
  401d5a:	85 db                	test   %ebx,%ebx
  401d5c:	74 08                	je     401d66 <notify_server+0x81>
  401d5e:	41 b9 61 34 40 00    	mov    $0x403461,%r9d
  401d64:	eb 06                	jmp    401d6c <notify_server+0x87>
  401d66:	41 b9 66 34 40 00    	mov    $0x403466,%r9d
  401d6c:	68 40 55 60 00       	pushq  $0x605540
  401d71:	56                   	push   %rsi
  401d72:	50                   	push   %rax
  401d73:	52                   	push   %rdx
  401d74:	44 8b 05 ed 33 20 00 	mov    0x2033ed(%rip),%r8d        # 605168 <target_id>
  401d7b:	b9 6b 34 40 00       	mov    $0x40346b,%ecx
  401d80:	ba 00 20 00 00       	mov    $0x2000,%edx
  401d85:	be 01 00 00 00       	mov    $0x1,%esi
  401d8a:	48 8d 7c 24 20       	lea    0x20(%rsp),%rdi
  401d8f:	b8 00 00 00 00       	mov    $0x0,%eax
  401d94:	e8 e7 f0 ff ff       	callq  400e80 <__sprintf_chk@plt>
  401d99:	48 83 c4 20          	add    $0x20,%rsp
  401d9d:	83 3d 04 37 20 00 00 	cmpl   $0x0,0x203704(%rip)        # 6054a8 <notify>
  401da4:	0f 84 81 00 00 00    	je     401e2b <notify_server+0x146>
  401daa:	85 db                	test   %ebx,%ebx
  401dac:	74 6e                	je     401e1c <notify_server+0x137>
  401dae:	4c 8d 8c 24 00 20 00 	lea    0x2000(%rsp),%r9
  401db5:	00 
  401db6:	41 b8 00 00 00 00    	mov    $0x0,%r8d
  401dbc:	48 89 e1             	mov    %rsp,%rcx
  401dbf:	48 8b 15 aa 33 20 00 	mov    0x2033aa(%rip),%rdx        # 605170 <lab>
  401dc6:	48 8b 35 ab 33 20 00 	mov    0x2033ab(%rip),%rsi        # 605178 <course>
  401dcd:	48 8b 3d 8c 33 20 00 	mov    0x20338c(%rip),%rdi        # 605160 <user_id>
  401dd4:	e8 ef 10 00 00       	callq  402ec8 <driver_post>
  401dd9:	85 c0                	test   %eax,%eax
  401ddb:	79 26                	jns    401e03 <notify_server+0x11e>
  401ddd:	48 8d 94 24 00 20 00 	lea    0x2000(%rsp),%rdx
  401de4:	00 
  401de5:	be 87 34 40 00       	mov    $0x403487,%esi
  401dea:	bf 01 00 00 00       	mov    $0x1,%edi
  401def:	b8 00 00 00 00       	mov    $0x0,%eax
  401df4:	e8 07 f0 ff ff       	callq  400e00 <__printf_chk@plt>
  401df9:	bf 01 00 00 00       	mov    $0x1,%edi
  401dfe:	e8 4d f0 ff ff       	callq  400e50 <exit@plt>
  401e03:	bf b0 35 40 00       	mov    $0x4035b0,%edi
  401e08:	e8 c3 ee ff ff       	callq  400cd0 <puts@plt>
  401e0d:	bf 93 34 40 00       	mov    $0x403493,%edi
  401e12:	e8 b9 ee ff ff       	callq  400cd0 <puts@plt>
  401e17:	e9 9b 00 00 00       	jmpq   401eb7 <notify_server+0x1d2>
  401e1c:	bf 9d 34 40 00       	mov    $0x40349d,%edi
  401e21:	e8 aa ee ff ff       	callq  400cd0 <puts@plt>
  401e26:	e9 8c 00 00 00       	jmpq   401eb7 <notify_server+0x1d2>
  401e2b:	85 db                	test   %ebx,%ebx
  401e2d:	74 07                	je     401e36 <notify_server+0x151>
  401e2f:	ba 61 34 40 00       	mov    $0x403461,%edx
  401e34:	eb 05                	jmp    401e3b <notify_server+0x156>
  401e36:	ba 66 34 40 00       	mov    $0x403466,%edx
  401e3b:	be e8 35 40 00       	mov    $0x4035e8,%esi
  401e40:	bf 01 00 00 00       	mov    $0x1,%edi
  401e45:	b8 00 00 00 00       	mov    $0x0,%eax
  401e4a:	e8 b1 ef ff ff       	callq  400e00 <__printf_chk@plt>
  401e4f:	48 8b 15 0a 33 20 00 	mov    0x20330a(%rip),%rdx        # 605160 <user_id>
  401e56:	be a4 34 40 00       	mov    $0x4034a4,%esi
  401e5b:	bf 01 00 00 00       	mov    $0x1,%edi
  401e60:	b8 00 00 00 00       	mov    $0x0,%eax
  401e65:	e8 96 ef ff ff       	callq  400e00 <__printf_chk@plt>
  401e6a:	48 8b 15 07 33 20 00 	mov    0x203307(%rip),%rdx        # 605178 <course>
  401e71:	be b1 34 40 00       	mov    $0x4034b1,%esi
  401e76:	bf 01 00 00 00       	mov    $0x1,%edi
  401e7b:	b8 00 00 00 00       	mov    $0x0,%eax
  401e80:	e8 7b ef ff ff       	callq  400e00 <__printf_chk@plt>
  401e85:	48 8b 15 e4 32 20 00 	mov    0x2032e4(%rip),%rdx        # 605170 <lab>
  401e8c:	be bd 34 40 00       	mov    $0x4034bd,%esi
  401e91:	bf 01 00 00 00       	mov    $0x1,%edi
  401e96:	b8 00 00 00 00       	mov    $0x0,%eax
  401e9b:	e8 60 ef ff ff       	callq  400e00 <__printf_chk@plt>
  401ea0:	48 89 e2             	mov    %rsp,%rdx
  401ea3:	be c6 34 40 00       	mov    $0x4034c6,%esi
  401ea8:	bf 01 00 00 00       	mov    $0x1,%edi
  401ead:	b8 00 00 00 00       	mov    $0x0,%eax
  401eb2:	e8 49 ef ff ff       	callq  400e00 <__printf_chk@plt>
  401eb7:	48 8b 84 24 08 40 00 	mov    0x4008(%rsp),%rax
  401ebe:	00 
  401ebf:	64 48 33 04 25 28 00 	xor    %fs:0x28,%rax
  401ec6:	00 00 
  401ec8:	74 05                	je     401ecf <notify_server+0x1ea>
  401eca:	e8 21 ee ff ff       	callq  400cf0 <__stack_chk_fail@plt>
  401ecf:	48 81 c4 10 40 00 00 	add    $0x4010,%rsp
  401ed6:	5b                   	pop    %rbx
  401ed7:	c3                   	retq   

0000000000401ed8 <validate>:
  401ed8:	53                   	push   %rbx
  401ed9:	89 fb                	mov    %edi,%ebx
  401edb:	83 3d 46 36 20 00 00 	cmpl   $0x0,0x203646(%rip)        # 605528 <is_checker>
  401ee2:	74 6b                	je     401f4f <validate+0x77>
  401ee4:	39 3d 32 36 20 00    	cmp    %edi,0x203632(%rip)        # 60551c <vlevel>
  401eea:	74 14                	je     401f00 <validate+0x28>
  401eec:	bf d2 34 40 00       	mov    $0x4034d2,%edi
  401ef1:	e8 da ed ff ff       	callq  400cd0 <puts@plt>
  401ef6:	b8 00 00 00 00       	mov    $0x0,%eax
  401efb:	e8 5e fd ff ff       	callq  401c5e <check_fail>
  401f00:	8b 15 12 36 20 00    	mov    0x203612(%rip),%edx        # 605518 <check_level>
  401f06:	39 d7                	cmp    %edx,%edi
  401f08:	74 20                	je     401f2a <validate+0x52>
  401f0a:	89 f9                	mov    %edi,%ecx
  401f0c:	be 10 36 40 00       	mov    $0x403610,%esi
  401f11:	bf 01 00 00 00       	mov    $0x1,%edi
  401f16:	b8 00 00 00 00       	mov    $0x0,%eax
  401f1b:	e8 e0 ee ff ff       	callq  400e00 <__printf_chk@plt>
  401f20:	b8 00 00 00 00       	mov    $0x0,%eax
  401f25:	e8 34 fd ff ff       	callq  401c5e <check_fail>
  401f2a:	0f be 15 17 42 20 00 	movsbl 0x204217(%rip),%edx        # 606148 <target_prefix>
  401f31:	41 b8 40 55 60 00    	mov    $0x605540,%r8d
  401f37:	89 f9                	mov    %edi,%ecx
  401f39:	be f0 34 40 00       	mov    $0x4034f0,%esi
  401f3e:	bf 01 00 00 00       	mov    $0x1,%edi
  401f43:	b8 00 00 00 00       	mov    $0x0,%eax
  401f48:	e8 b3 ee ff ff       	callq  400e00 <__printf_chk@plt>
  401f4d:	eb 49                	jmp    401f98 <validate+0xc0>
  401f4f:	3b 3d c7 35 20 00    	cmp    0x2035c7(%rip),%edi        # 60551c <vlevel>
  401f55:	74 18                	je     401f6f <validate+0x97>
  401f57:	bf d2 34 40 00       	mov    $0x4034d2,%edi
  401f5c:	e8 6f ed ff ff       	callq  400cd0 <puts@plt>
  401f61:	89 de                	mov    %ebx,%esi
  401f63:	bf 00 00 00 00       	mov    $0x0,%edi
  401f68:	e8 78 fd ff ff       	callq  401ce5 <notify_server>
  401f6d:	eb 29                	jmp    401f98 <validate+0xc0>
  401f6f:	0f be 0d d2 41 20 00 	movsbl 0x2041d2(%rip),%ecx        # 606148 <target_prefix>
  401f76:	89 fa                	mov    %edi,%edx
  401f78:	be 38 36 40 00       	mov    $0x403638,%esi
  401f7d:	bf 01 00 00 00       	mov    $0x1,%edi
  401f82:	b8 00 00 00 00       	mov    $0x0,%eax
  401f87:	e8 74 ee ff ff       	callq  400e00 <__printf_chk@plt>
  401f8c:	89 de                	mov    %ebx,%esi
  401f8e:	bf 01 00 00 00       	mov    $0x1,%edi
  401f93:	e8 4d fd ff ff       	callq  401ce5 <notify_server>
  401f98:	5b                   	pop    %rbx
  401f99:	c3                   	retq   

0000000000401f9a <fail>:
  401f9a:	48 83 ec 08          	sub    $0x8,%rsp
  401f9e:	83 3d 83 35 20 00 00 	cmpl   $0x0,0x203583(%rip)        # 605528 <is_checker>
  401fa5:	74 0a                	je     401fb1 <fail+0x17>
  401fa7:	b8 00 00 00 00       	mov    $0x0,%eax
  401fac:	e8 ad fc ff ff       	callq  401c5e <check_fail>
  401fb1:	89 fe                	mov    %edi,%esi
  401fb3:	bf 00 00 00 00       	mov    $0x0,%edi
  401fb8:	e8 28 fd ff ff       	callq  401ce5 <notify_server>
  401fbd:	48 83 c4 08          	add    $0x8,%rsp
  401fc1:	c3                   	retq   

0000000000401fc2 <bushandler>:
  401fc2:	48 83 ec 08          	sub    $0x8,%rsp
  401fc6:	83 3d 5b 35 20 00 00 	cmpl   $0x0,0x20355b(%rip)        # 605528 <is_checker>
  401fcd:	74 14                	je     401fe3 <bushandler+0x21>
  401fcf:	bf 05 35 40 00       	mov    $0x403505,%edi
  401fd4:	e8 f7 ec ff ff       	callq  400cd0 <puts@plt>
  401fd9:	b8 00 00 00 00       	mov    $0x0,%eax
  401fde:	e8 7b fc ff ff       	callq  401c5e <check_fail>
  401fe3:	bf 70 36 40 00       	mov    $0x403670,%edi
  401fe8:	e8 e3 ec ff ff       	callq  400cd0 <puts@plt>
  401fed:	bf 0f 35 40 00       	mov    $0x40350f,%edi
  401ff2:	e8 d9 ec ff ff       	callq  400cd0 <puts@plt>
  401ff7:	be 00 00 00 00       	mov    $0x0,%esi
  401ffc:	bf 00 00 00 00       	mov    $0x0,%edi
  402001:	e8 df fc ff ff       	callq  401ce5 <notify_server>
  402006:	bf 01 00 00 00       	mov    $0x1,%edi
  40200b:	e8 40 ee ff ff       	callq  400e50 <exit@plt>

0000000000402010 <seghandler>:
  402010:	48 83 ec 08          	sub    $0x8,%rsp
  402014:	83 3d 0d 35 20 00 00 	cmpl   $0x0,0x20350d(%rip)        # 605528 <is_checker>
  40201b:	74 14                	je     402031 <seghandler+0x21>
  40201d:	bf 25 35 40 00       	mov    $0x403525,%edi
  402022:	e8 a9 ec ff ff       	callq  400cd0 <puts@plt>
  402027:	b8 00 00 00 00       	mov    $0x0,%eax
  40202c:	e8 2d fc ff ff       	callq  401c5e <check_fail>
  402031:	bf 90 36 40 00       	mov    $0x403690,%edi
  402036:	e8 95 ec ff ff       	callq  400cd0 <puts@plt>
  40203b:	bf 0f 35 40 00       	mov    $0x40350f,%edi
  402040:	e8 8b ec ff ff       	callq  400cd0 <puts@plt>
  402045:	be 00 00 00 00       	mov    $0x0,%esi
  40204a:	bf 00 00 00 00       	mov    $0x0,%edi
  40204f:	e8 91 fc ff ff       	callq  401ce5 <notify_server>
  402054:	bf 01 00 00 00       	mov    $0x1,%edi
  402059:	e8 f2 ed ff ff       	callq  400e50 <exit@plt>

000000000040205e <illegalhandler>:
  40205e:	48 83 ec 08          	sub    $0x8,%rsp
  402062:	83 3d bf 34 20 00 00 	cmpl   $0x0,0x2034bf(%rip)        # 605528 <is_checker>
  402069:	74 14                	je     40207f <illegalhandler+0x21>
  40206b:	bf 38 35 40 00       	mov    $0x403538,%edi
  402070:	e8 5b ec ff ff       	callq  400cd0 <puts@plt>
  402075:	b8 00 00 00 00       	mov    $0x0,%eax
  40207a:	e8 df fb ff ff       	callq  401c5e <check_fail>
  40207f:	bf b8 36 40 00       	mov    $0x4036b8,%edi
  402084:	e8 47 ec ff ff       	callq  400cd0 <puts@plt>
  402089:	bf 0f 35 40 00       	mov    $0x40350f,%edi
  40208e:	e8 3d ec ff ff       	callq  400cd0 <puts@plt>
  402093:	be 00 00 00 00       	mov    $0x0,%esi
  402098:	bf 00 00 00 00       	mov    $0x0,%edi
  40209d:	e8 43 fc ff ff       	callq  401ce5 <notify_server>
  4020a2:	bf 01 00 00 00       	mov    $0x1,%edi
  4020a7:	e8 a4 ed ff ff       	callq  400e50 <exit@plt>

00000000004020ac <sigalrmhandler>:
  4020ac:	48 83 ec 08          	sub    $0x8,%rsp
  4020b0:	83 3d 71 34 20 00 00 	cmpl   $0x0,0x203471(%rip)        # 605528 <is_checker>
  4020b7:	74 14                	je     4020cd <sigalrmhandler+0x21>
  4020b9:	bf 4c 35 40 00       	mov    $0x40354c,%edi
  4020be:	e8 0d ec ff ff       	callq  400cd0 <puts@plt>
  4020c3:	b8 00 00 00 00       	mov    $0x0,%eax
  4020c8:	e8 91 fb ff ff       	callq  401c5e <check_fail>
  4020cd:	ba 05 00 00 00       	mov    $0x5,%edx
  4020d2:	be e8 36 40 00       	mov    $0x4036e8,%esi
  4020d7:	bf 01 00 00 00       	mov    $0x1,%edi
  4020dc:	b8 00 00 00 00       	mov    $0x0,%eax
  4020e1:	e8 1a ed ff ff       	callq  400e00 <__printf_chk@plt>
  4020e6:	be 00 00 00 00       	mov    $0x0,%esi
  4020eb:	bf 00 00 00 00       	mov    $0x0,%edi
  4020f0:	e8 f0 fb ff ff       	callq  401ce5 <notify_server>
  4020f5:	bf 01 00 00 00       	mov    $0x1,%edi
  4020fa:	e8 51 ed ff ff       	callq  400e50 <exit@plt>

00000000004020ff <launch>:
  4020ff:	55                   	push   %rbp
  402100:	48 89 e5             	mov    %rsp,%rbp
  402103:	48 83 ec 10          	sub    $0x10,%rsp
  402107:	48 89 fa             	mov    %rdi,%rdx
  40210a:	64 48 8b 04 25 28 00 	mov    %fs:0x28,%rax
  402111:	00 00 
  402113:	48 89 45 f8          	mov    %rax,-0x8(%rbp)
  402117:	31 c0                	xor    %eax,%eax
  402119:	48 8d 47 1e          	lea    0x1e(%rdi),%rax
  40211d:	48 83 e0 f0          	and    $0xfffffffffffffff0,%rax
  402121:	48 29 c4             	sub    %rax,%rsp
  402124:	48 8d 7c 24 0f       	lea    0xf(%rsp),%rdi
  402129:	48 83 e7 f0          	and    $0xfffffffffffffff0,%rdi
  40212d:	be f4 00 00 00       	mov    $0xf4,%esi
  402132:	e8 d9 eb ff ff       	callq  400d10 <memset@plt>
  402137:	48 8b 05 82 33 20 00 	mov    0x203382(%rip),%rax        # 6054c0 <stdin@@GLIBC_2.2.5>
  40213e:	48 39 05 cb 33 20 00 	cmp    %rax,0x2033cb(%rip)        # 605510 <infile>
  402145:	75 14                	jne    40215b <launch+0x5c>
  402147:	be 54 35 40 00       	mov    $0x403554,%esi
  40214c:	bf 01 00 00 00       	mov    $0x1,%edi
  402151:	b8 00 00 00 00       	mov    $0x0,%eax
  402156:	e8 a5 ec ff ff       	callq  400e00 <__printf_chk@plt>
  40215b:	c7 05 b7 33 20 00 00 	movl   $0x0,0x2033b7(%rip)        # 60551c <vlevel>
  402162:	00 00 00 
  402165:	b8 00 00 00 00       	mov    $0x0,%eax
  40216a:	e8 36 f9 ff ff       	callq  401aa5 <test>
  40216f:	83 3d b2 33 20 00 00 	cmpl   $0x0,0x2033b2(%rip)        # 605528 <is_checker>
  402176:	74 14                	je     40218c <launch+0x8d>
  402178:	bf 61 35 40 00       	mov    $0x403561,%edi
  40217d:	e8 4e eb ff ff       	callq  400cd0 <puts@plt>
  402182:	b8 00 00 00 00       	mov    $0x0,%eax
  402187:	e8 d2 fa ff ff       	callq  401c5e <check_fail>
  40218c:	bf 6c 35 40 00       	mov    $0x40356c,%edi
  402191:	e8 3a eb ff ff       	callq  400cd0 <puts@plt>
  402196:	48 8b 45 f8          	mov    -0x8(%rbp),%rax
  40219a:	64 48 33 04 25 28 00 	xor    %fs:0x28,%rax
  4021a1:	00 00 
  4021a3:	74 05                	je     4021aa <launch+0xab>
  4021a5:	e8 46 eb ff ff       	callq  400cf0 <__stack_chk_fail@plt>
  4021aa:	c9                   	leaveq 
  4021ab:	c3                   	retq   

00000000004021ac <stable_launch>:
  4021ac:	53                   	push   %rbx
  4021ad:	48 89 3d 54 33 20 00 	mov    %rdi,0x203354(%rip)        # 605508 <global_offset>
  4021b4:	41 b9 00 00 00 00    	mov    $0x0,%r9d
  4021ba:	41 b8 00 00 00 00    	mov    $0x0,%r8d
  4021c0:	b9 32 01 00 00       	mov    $0x132,%ecx
  4021c5:	ba 07 00 00 00       	mov    $0x7,%edx
  4021ca:	be 00 00 10 00       	mov    $0x100000,%esi
  4021cf:	bf 00 60 58 55       	mov    $0x55586000,%edi
  4021d4:	e8 27 eb ff ff       	callq  400d00 <mmap@plt>
  4021d9:	48 89 c3             	mov    %rax,%rbx
  4021dc:	48 3d 00 60 58 55    	cmp    $0x55586000,%rax
  4021e2:	74 37                	je     40221b <stable_launch+0x6f>
  4021e4:	be 00 00 10 00       	mov    $0x100000,%esi
  4021e9:	48 89 c7             	mov    %rax,%rdi
  4021ec:	e8 ff eb ff ff       	callq  400df0 <munmap@plt>
  4021f1:	b9 00 60 58 55       	mov    $0x55586000,%ecx
  4021f6:	ba 20 37 40 00       	mov    $0x403720,%edx
  4021fb:	be 01 00 00 00       	mov    $0x1,%esi
  402200:	48 8b 3d d9 32 20 00 	mov    0x2032d9(%rip),%rdi        # 6054e0 <stderr@@GLIBC_2.2.5>
  402207:	b8 00 00 00 00       	mov    $0x0,%eax
  40220c:	e8 5f ec ff ff       	callq  400e70 <__fprintf_chk@plt>
  402211:	bf 01 00 00 00       	mov    $0x1,%edi
  402216:	e8 35 ec ff ff       	callq  400e50 <exit@plt>
  40221b:	48 8d 90 f8 ff 0f 00 	lea    0xffff8(%rax),%rdx
  402222:	48 89 15 27 3f 20 00 	mov    %rdx,0x203f27(%rip)        # 606150 <stack_top>
  402229:	48 89 e0             	mov    %rsp,%rax
  40222c:	48 89 d4             	mov    %rdx,%rsp
  40222f:	48 89 c2             	mov    %rax,%rdx
  402232:	48 89 15 c7 32 20 00 	mov    %rdx,0x2032c7(%rip)        # 605500 <global_save_stack>
  402239:	48 8b 3d c8 32 20 00 	mov    0x2032c8(%rip),%rdi        # 605508 <global_offset>
  402240:	e8 ba fe ff ff       	callq  4020ff <launch>
  402245:	48 8b 05 b4 32 20 00 	mov    0x2032b4(%rip),%rax        # 605500 <global_save_stack>
  40224c:	48 89 c4             	mov    %rax,%rsp
  40224f:	be 00 00 10 00       	mov    $0x100000,%esi
  402254:	48 89 df             	mov    %rbx,%rdi
  402257:	e8 94 eb ff ff       	callq  400df0 <munmap@plt>
  40225c:	5b                   	pop    %rbx
  40225d:	c3                   	retq   

000000000040225e <rio_readinitb>:
  40225e:	89 37                	mov    %esi,(%rdi)
  402260:	c7 47 04 00 00 00 00 	movl   $0x0,0x4(%rdi)
  402267:	48 8d 47 10          	lea    0x10(%rdi),%rax
  40226b:	48 89 47 08          	mov    %rax,0x8(%rdi)
  40226f:	c3                   	retq   

0000000000402270 <sigalrm_handler>:
  402270:	48 83 ec 08          	sub    $0x8,%rsp
  402274:	b9 00 00 00 00       	mov    $0x0,%ecx
  402279:	ba 60 37 40 00       	mov    $0x403760,%edx
  40227e:	be 01 00 00 00       	mov    $0x1,%esi
  402283:	48 8b 3d 56 32 20 00 	mov    0x203256(%rip),%rdi        # 6054e0 <stderr@@GLIBC_2.2.5>
  40228a:	b8 00 00 00 00       	mov    $0x0,%eax
  40228f:	e8 dc eb ff ff       	callq  400e70 <__fprintf_chk@plt>
  402294:	bf 01 00 00 00       	mov    $0x1,%edi
  402299:	e8 b2 eb ff ff       	callq  400e50 <exit@plt>

000000000040229e <rio_writen>:
  40229e:	41 55                	push   %r13
  4022a0:	41 54                	push   %r12
  4022a2:	55                   	push   %rbp
  4022a3:	53                   	push   %rbx
  4022a4:	48 83 ec 08          	sub    $0x8,%rsp
  4022a8:	41 89 fc             	mov    %edi,%r12d
  4022ab:	48 89 f5             	mov    %rsi,%rbp
  4022ae:	49 89 d5             	mov    %rdx,%r13
  4022b1:	48 89 d3             	mov    %rdx,%rbx
  4022b4:	eb 28                	jmp    4022de <rio_writen+0x40>
  4022b6:	48 89 da             	mov    %rbx,%rdx
  4022b9:	48 89 ee             	mov    %rbp,%rsi
  4022bc:	44 89 e7             	mov    %r12d,%edi
  4022bf:	e8 1c ea ff ff       	callq  400ce0 <write@plt>
  4022c4:	48 85 c0             	test   %rax,%rax
  4022c7:	7f 0f                	jg     4022d8 <rio_writen+0x3a>
  4022c9:	e8 c2 e9 ff ff       	callq  400c90 <__errno_location@plt>
  4022ce:	83 38 04             	cmpl   $0x4,(%rax)
  4022d1:	75 15                	jne    4022e8 <rio_writen+0x4a>
  4022d3:	b8 00 00 00 00       	mov    $0x0,%eax
  4022d8:	48 29 c3             	sub    %rax,%rbx
  4022db:	48 01 c5             	add    %rax,%rbp
  4022de:	48 85 db             	test   %rbx,%rbx
  4022e1:	75 d3                	jne    4022b6 <rio_writen+0x18>
  4022e3:	4c 89 e8             	mov    %r13,%rax
  4022e6:	eb 07                	jmp    4022ef <rio_writen+0x51>
  4022e8:	48 c7 c0 ff ff ff ff 	mov    $0xffffffffffffffff,%rax
  4022ef:	48 83 c4 08          	add    $0x8,%rsp
  4022f3:	5b                   	pop    %rbx
  4022f4:	5d                   	pop    %rbp
  4022f5:	41 5c                	pop    %r12
  4022f7:	41 5d                	pop    %r13
  4022f9:	c3                   	retq   

00000000004022fa <rio_read>:
  4022fa:	41 55                	push   %r13
  4022fc:	41 54                	push   %r12
  4022fe:	55                   	push   %rbp
  4022ff:	53                   	push   %rbx
  402300:	48 83 ec 08          	sub    $0x8,%rsp
  402304:	48 89 fb             	mov    %rdi,%rbx
  402307:	49 89 f5             	mov    %rsi,%r13
  40230a:	49 89 d4             	mov    %rdx,%r12
  40230d:	eb 2e                	jmp    40233d <rio_read+0x43>
  40230f:	48 8d 6b 10          	lea    0x10(%rbx),%rbp
  402313:	8b 3b                	mov    (%rbx),%edi
  402315:	ba 00 20 00 00       	mov    $0x2000,%edx
  40231a:	48 89 ee             	mov    %rbp,%rsi
  40231d:	e8 1e ea ff ff       	callq  400d40 <read@plt>
  402322:	89 43 04             	mov    %eax,0x4(%rbx)
  402325:	85 c0                	test   %eax,%eax
  402327:	79 0c                	jns    402335 <rio_read+0x3b>
  402329:	e8 62 e9 ff ff       	callq  400c90 <__errno_location@plt>
  40232e:	83 38 04             	cmpl   $0x4,(%rax)
  402331:	74 0a                	je     40233d <rio_read+0x43>
  402333:	eb 37                	jmp    40236c <rio_read+0x72>
  402335:	85 c0                	test   %eax,%eax
  402337:	74 3c                	je     402375 <rio_read+0x7b>
  402339:	48 89 6b 08          	mov    %rbp,0x8(%rbx)
  40233d:	8b 6b 04             	mov    0x4(%rbx),%ebp
  402340:	85 ed                	test   %ebp,%ebp
  402342:	7e cb                	jle    40230f <rio_read+0x15>
  402344:	89 e8                	mov    %ebp,%eax
  402346:	49 39 c4             	cmp    %rax,%r12
  402349:	77 03                	ja     40234e <rio_read+0x54>
  40234b:	44 89 e5             	mov    %r12d,%ebp
  40234e:	4c 63 e5             	movslq %ebp,%r12
  402351:	48 8b 73 08          	mov    0x8(%rbx),%rsi
  402355:	4c 89 e2             	mov    %r12,%rdx
  402358:	4c 89 ef             	mov    %r13,%rdi
  40235b:	e8 40 ea ff ff       	callq  400da0 <memcpy@plt>
  402360:	4c 01 63 08          	add    %r12,0x8(%rbx)
  402364:	29 6b 04             	sub    %ebp,0x4(%rbx)
  402367:	4c 89 e0             	mov    %r12,%rax
  40236a:	eb 0e                	jmp    40237a <rio_read+0x80>
  40236c:	48 c7 c0 ff ff ff ff 	mov    $0xffffffffffffffff,%rax
  402373:	eb 05                	jmp    40237a <rio_read+0x80>
  402375:	b8 00 00 00 00       	mov    $0x0,%eax
  40237a:	48 83 c4 08          	add    $0x8,%rsp
  40237e:	5b                   	pop    %rbx
  40237f:	5d                   	pop    %rbp
  402380:	41 5c                	pop    %r12
  402382:	41 5d                	pop    %r13
  402384:	c3                   	retq   

0000000000402385 <rio_readlineb>:
  402385:	41 55                	push   %r13
  402387:	41 54                	push   %r12
  402389:	55                   	push   %rbp
  40238a:	53                   	push   %rbx
  40238b:	48 83 ec 18          	sub    $0x18,%rsp
  40238f:	49 89 fd             	mov    %rdi,%r13
  402392:	48 89 f5             	mov    %rsi,%rbp
  402395:	49 89 d4             	mov    %rdx,%r12
  402398:	64 48 8b 04 25 28 00 	mov    %fs:0x28,%rax
  40239f:	00 00 
  4023a1:	48 89 44 24 08       	mov    %rax,0x8(%rsp)
  4023a6:	31 c0                	xor    %eax,%eax
  4023a8:	bb 01 00 00 00       	mov    $0x1,%ebx
  4023ad:	eb 3f                	jmp    4023ee <rio_readlineb+0x69>
  4023af:	ba 01 00 00 00       	mov    $0x1,%edx
  4023b4:	48 8d 74 24 07       	lea    0x7(%rsp),%rsi
  4023b9:	4c 89 ef             	mov    %r13,%rdi
  4023bc:	e8 39 ff ff ff       	callq  4022fa <rio_read>
  4023c1:	83 f8 01             	cmp    $0x1,%eax
  4023c4:	75 15                	jne    4023db <rio_readlineb+0x56>
  4023c6:	48 8d 45 01          	lea    0x1(%rbp),%rax
  4023ca:	0f b6 54 24 07       	movzbl 0x7(%rsp),%edx
  4023cf:	88 55 00             	mov    %dl,0x0(%rbp)
  4023d2:	80 7c 24 07 0a       	cmpb   $0xa,0x7(%rsp)
  4023d7:	75 0e                	jne    4023e7 <rio_readlineb+0x62>
  4023d9:	eb 1a                	jmp    4023f5 <rio_readlineb+0x70>
  4023db:	85 c0                	test   %eax,%eax
  4023dd:	75 22                	jne    402401 <rio_readlineb+0x7c>
  4023df:	48 83 fb 01          	cmp    $0x1,%rbx
  4023e3:	75 13                	jne    4023f8 <rio_readlineb+0x73>
  4023e5:	eb 23                	jmp    40240a <rio_readlineb+0x85>
  4023e7:	48 83 c3 01          	add    $0x1,%rbx
  4023eb:	48 89 c5             	mov    %rax,%rbp
  4023ee:	4c 39 e3             	cmp    %r12,%rbx
  4023f1:	72 bc                	jb     4023af <rio_readlineb+0x2a>
  4023f3:	eb 03                	jmp    4023f8 <rio_readlineb+0x73>
  4023f5:	48 89 c5             	mov    %rax,%rbp
  4023f8:	c6 45 00 00          	movb   $0x0,0x0(%rbp)
  4023fc:	48 89 d8             	mov    %rbx,%rax
  4023ff:	eb 0e                	jmp    40240f <rio_readlineb+0x8a>
  402401:	48 c7 c0 ff ff ff ff 	mov    $0xffffffffffffffff,%rax
  402408:	eb 05                	jmp    40240f <rio_readlineb+0x8a>
  40240a:	b8 00 00 00 00       	mov    $0x0,%eax
  40240f:	48 8b 4c 24 08       	mov    0x8(%rsp),%rcx
  402414:	64 48 33 0c 25 28 00 	xor    %fs:0x28,%rcx
  40241b:	00 00 
  40241d:	74 05                	je     402424 <rio_readlineb+0x9f>
  40241f:	e8 cc e8 ff ff       	callq  400cf0 <__stack_chk_fail@plt>
  402424:	48 83 c4 18          	add    $0x18,%rsp
  402428:	5b                   	pop    %rbx
  402429:	5d                   	pop    %rbp
  40242a:	41 5c                	pop    %r12
  40242c:	41 5d                	pop    %r13
  40242e:	c3                   	retq   

000000000040242f <urlencode>:
  40242f:	41 54                	push   %r12
  402431:	55                   	push   %rbp
  402432:	53                   	push   %rbx
  402433:	48 83 ec 10          	sub    $0x10,%rsp
  402437:	48 89 fb             	mov    %rdi,%rbx
  40243a:	48 89 f5             	mov    %rsi,%rbp
  40243d:	64 48 8b 04 25 28 00 	mov    %fs:0x28,%rax
  402444:	00 00 
  402446:	48 89 44 24 08       	mov    %rax,0x8(%rsp)
  40244b:	31 c0                	xor    %eax,%eax
  40244d:	48 c7 c1 ff ff ff ff 	mov    $0xffffffffffffffff,%rcx
  402454:	f2 ae                	repnz scas %es:(%rdi),%al
  402456:	48 f7 d1             	not    %rcx
  402459:	8d 41 ff             	lea    -0x1(%rcx),%eax
  40245c:	e9 aa 00 00 00       	jmpq   40250b <urlencode+0xdc>
  402461:	44 0f b6 03          	movzbl (%rbx),%r8d
  402465:	41 80 f8 2a          	cmp    $0x2a,%r8b
  402469:	0f 94 c2             	sete   %dl
  40246c:	41 80 f8 2d          	cmp    $0x2d,%r8b
  402470:	0f 94 c0             	sete   %al
  402473:	08 c2                	or     %al,%dl
  402475:	75 24                	jne    40249b <urlencode+0x6c>
  402477:	41 80 f8 2e          	cmp    $0x2e,%r8b
  40247b:	74 1e                	je     40249b <urlencode+0x6c>
  40247d:	41 80 f8 5f          	cmp    $0x5f,%r8b
  402481:	74 18                	je     40249b <urlencode+0x6c>
  402483:	41 8d 40 d0          	lea    -0x30(%r8),%eax
  402487:	3c 09                	cmp    $0x9,%al
  402489:	76 10                	jbe    40249b <urlencode+0x6c>
  40248b:	41 8d 40 bf          	lea    -0x41(%r8),%eax
  40248f:	3c 19                	cmp    $0x19,%al
  402491:	76 08                	jbe    40249b <urlencode+0x6c>
  402493:	41 8d 40 9f          	lea    -0x61(%r8),%eax
  402497:	3c 19                	cmp    $0x19,%al
  402499:	77 0a                	ja     4024a5 <urlencode+0x76>
  40249b:	44 88 45 00          	mov    %r8b,0x0(%rbp)
  40249f:	48 8d 6d 01          	lea    0x1(%rbp),%rbp
  4024a3:	eb 5f                	jmp    402504 <urlencode+0xd5>
  4024a5:	41 80 f8 20          	cmp    $0x20,%r8b
  4024a9:	75 0a                	jne    4024b5 <urlencode+0x86>
  4024ab:	c6 45 00 2b          	movb   $0x2b,0x0(%rbp)
  4024af:	48 8d 6d 01          	lea    0x1(%rbp),%rbp
  4024b3:	eb 4f                	jmp    402504 <urlencode+0xd5>
  4024b5:	41 8d 40 e0          	lea    -0x20(%r8),%eax
  4024b9:	3c 5f                	cmp    $0x5f,%al
  4024bb:	0f 96 c2             	setbe  %dl
  4024be:	41 80 f8 09          	cmp    $0x9,%r8b
  4024c2:	0f 94 c0             	sete   %al
  4024c5:	08 c2                	or     %al,%dl
  4024c7:	74 50                	je     402519 <urlencode+0xea>
  4024c9:	45 0f b6 c0          	movzbl %r8b,%r8d
  4024cd:	b9 f8 37 40 00       	mov    $0x4037f8,%ecx
  4024d2:	ba 08 00 00 00       	mov    $0x8,%edx
  4024d7:	be 01 00 00 00       	mov    $0x1,%esi
  4024dc:	48 89 e7             	mov    %rsp,%rdi
  4024df:	b8 00 00 00 00       	mov    $0x0,%eax
  4024e4:	e8 97 e9 ff ff       	callq  400e80 <__sprintf_chk@plt>
  4024e9:	0f b6 04 24          	movzbl (%rsp),%eax
  4024ed:	88 45 00             	mov    %al,0x0(%rbp)
  4024f0:	0f b6 44 24 01       	movzbl 0x1(%rsp),%eax
  4024f5:	88 45 01             	mov    %al,0x1(%rbp)
  4024f8:	0f b6 44 24 02       	movzbl 0x2(%rsp),%eax
  4024fd:	88 45 02             	mov    %al,0x2(%rbp)
  402500:	48 8d 6d 03          	lea    0x3(%rbp),%rbp
  402504:	48 83 c3 01          	add    $0x1,%rbx
  402508:	44 89 e0             	mov    %r12d,%eax
  40250b:	44 8d 60 ff          	lea    -0x1(%rax),%r12d
  40250f:	85 c0                	test   %eax,%eax
  402511:	0f 85 4a ff ff ff    	jne    402461 <urlencode+0x32>
  402517:	eb 05                	jmp    40251e <urlencode+0xef>
  402519:	b8 ff ff ff ff       	mov    $0xffffffff,%eax
  40251e:	48 8b 74 24 08       	mov    0x8(%rsp),%rsi
  402523:	64 48 33 34 25 28 00 	xor    %fs:0x28,%rsi
  40252a:	00 00 
  40252c:	74 05                	je     402533 <urlencode+0x104>
  40252e:	e8 bd e7 ff ff       	callq  400cf0 <__stack_chk_fail@plt>
  402533:	48 83 c4 10          	add    $0x10,%rsp
  402537:	5b                   	pop    %rbx
  402538:	5d                   	pop    %rbp
  402539:	41 5c                	pop    %r12
  40253b:	c3                   	retq   

000000000040253c <submitr>:
  40253c:	41 57                	push   %r15
  40253e:	41 56                	push   %r14
  402540:	41 55                	push   %r13
  402542:	41 54                	push   %r12
  402544:	55                   	push   %rbp
  402545:	53                   	push   %rbx
  402546:	48 81 ec 58 a0 00 00 	sub    $0xa058,%rsp
  40254d:	49 89 fc             	mov    %rdi,%r12
  402550:	89 74 24 04          	mov    %esi,0x4(%rsp)
  402554:	49 89 d7             	mov    %rdx,%r15
  402557:	49 89 ce             	mov    %rcx,%r14
  40255a:	4c 89 44 24 08       	mov    %r8,0x8(%rsp)
  40255f:	4d 89 cd             	mov    %r9,%r13
  402562:	48 8b 9c 24 90 a0 00 	mov    0xa090(%rsp),%rbx
  402569:	00 
  40256a:	64 48 8b 04 25 28 00 	mov    %fs:0x28,%rax
  402571:	00 00 
  402573:	48 89 84 24 48 a0 00 	mov    %rax,0xa048(%rsp)
  40257a:	00 
  40257b:	31 c0                	xor    %eax,%eax
  40257d:	c7 44 24 1c 00 00 00 	movl   $0x0,0x1c(%rsp)
  402584:	00 
  402585:	ba 00 00 00 00       	mov    $0x0,%edx
  40258a:	be 01 00 00 00       	mov    $0x1,%esi
  40258f:	bf 02 00 00 00       	mov    $0x2,%edi
  402594:	e8 f7 e8 ff ff       	callq  400e90 <socket@plt>
  402599:	85 c0                	test   %eax,%eax
  40259b:	79 4e                	jns    4025eb <submitr+0xaf>
  40259d:	48 b8 45 72 72 6f 72 	movabs $0x43203a726f727245,%rax
  4025a4:	3a 20 43 
  4025a7:	48 89 03             	mov    %rax,(%rbx)
  4025aa:	48 b8 6c 69 65 6e 74 	movabs $0x6e7520746e65696c,%rax
  4025b1:	20 75 6e 
  4025b4:	48 89 43 08          	mov    %rax,0x8(%rbx)
  4025b8:	48 b8 61 62 6c 65 20 	movabs $0x206f7420656c6261,%rax
  4025bf:	74 6f 20 
  4025c2:	48 89 43 10          	mov    %rax,0x10(%rbx)
  4025c6:	48 b8 63 72 65 61 74 	movabs $0x7320657461657263,%rax
  4025cd:	65 20 73 
  4025d0:	48 89 43 18          	mov    %rax,0x18(%rbx)
  4025d4:	c7 43 20 6f 63 6b 65 	movl   $0x656b636f,0x20(%rbx)
  4025db:	66 c7 43 24 74 00    	movw   $0x74,0x24(%rbx)
  4025e1:	b8 ff ff ff ff       	mov    $0xffffffff,%eax
  4025e6:	e9 97 06 00 00       	jmpq   402c82 <submitr+0x746>
  4025eb:	89 c5                	mov    %eax,%ebp
  4025ed:	4c 89 e7             	mov    %r12,%rdi
  4025f0:	e8 7b e7 ff ff       	callq  400d70 <gethostbyname@plt>
  4025f5:	48 85 c0             	test   %rax,%rax
  4025f8:	75 67                	jne    402661 <submitr+0x125>
  4025fa:	48 b8 45 72 72 6f 72 	movabs $0x44203a726f727245,%rax
  402601:	3a 20 44 
  402604:	48 89 03             	mov    %rax,(%rbx)
  402607:	48 b8 4e 53 20 69 73 	movabs $0x6e7520736920534e,%rax
  40260e:	20 75 6e 
  402611:	48 89 43 08          	mov    %rax,0x8(%rbx)
  402615:	48 b8 61 62 6c 65 20 	movabs $0x206f7420656c6261,%rax
  40261c:	74 6f 20 
  40261f:	48 89 43 10          	mov    %rax,0x10(%rbx)
  402623:	48 b8 72 65 73 6f 6c 	movabs $0x2065766c6f736572,%rax
  40262a:	76 65 20 
  40262d:	48 89 43 18          	mov    %rax,0x18(%rbx)
  402631:	48 b8 73 65 72 76 65 	movabs $0x6120726576726573,%rax
  402638:	72 20 61 
  40263b:	48 89 43 20          	mov    %rax,0x20(%rbx)
  40263f:	c7 43 28 64 64 72 65 	movl   $0x65726464,0x28(%rbx)
  402646:	66 c7 43 2c 73 73    	movw   $0x7373,0x2c(%rbx)
  40264c:	c6 43 2e 00          	movb   $0x0,0x2e(%rbx)
  402650:	89 ef                	mov    %ebp,%edi
  402652:	e8 d9 e6 ff ff       	callq  400d30 <close@plt>
  402657:	b8 ff ff ff ff       	mov    $0xffffffff,%eax
  40265c:	e9 21 06 00 00       	jmpq   402c82 <submitr+0x746>
  402661:	48 c7 44 24 20 00 00 	movq   $0x0,0x20(%rsp)
  402668:	00 00 
  40266a:	48 c7 44 24 28 00 00 	movq   $0x0,0x28(%rsp)
  402671:	00 00 
  402673:	66 c7 44 24 20 02 00 	movw   $0x2,0x20(%rsp)
  40267a:	48 63 50 14          	movslq 0x14(%rax),%rdx
  40267e:	48 8b 40 18          	mov    0x18(%rax),%rax
  402682:	48 8b 30             	mov    (%rax),%rsi
  402685:	48 8d 7c 24 24       	lea    0x24(%rsp),%rdi
  40268a:	b9 0c 00 00 00       	mov    $0xc,%ecx
  40268f:	e8 ec e6 ff ff       	callq  400d80 <__memmove_chk@plt>
  402694:	0f b7 44 24 04       	movzwl 0x4(%rsp),%eax
  402699:	66 c1 c8 08          	ror    $0x8,%ax
  40269d:	66 89 44 24 22       	mov    %ax,0x22(%rsp)
  4026a2:	ba 10 00 00 00       	mov    $0x10,%edx
  4026a7:	48 8d 74 24 20       	lea    0x20(%rsp),%rsi
  4026ac:	89 ef                	mov    %ebp,%edi
  4026ae:	e8 ad e7 ff ff       	callq  400e60 <connect@plt>
  4026b3:	85 c0                	test   %eax,%eax
  4026b5:	79 59                	jns    402710 <submitr+0x1d4>
  4026b7:	48 b8 45 72 72 6f 72 	movabs $0x55203a726f727245,%rax
  4026be:	3a 20 55 
  4026c1:	48 89 03             	mov    %rax,(%rbx)
  4026c4:	48 b8 6e 61 62 6c 65 	movabs $0x6f7420656c62616e,%rax
  4026cb:	20 74 6f 
  4026ce:	48 89 43 08          	mov    %rax,0x8(%rbx)
  4026d2:	48 b8 20 63 6f 6e 6e 	movabs $0x7463656e6e6f6320,%rax
  4026d9:	65 63 74 
  4026dc:	48 89 43 10          	mov    %rax,0x10(%rbx)
  4026e0:	48 b8 20 74 6f 20 74 	movabs $0x20656874206f7420,%rax
  4026e7:	68 65 20 
  4026ea:	48 89 43 18          	mov    %rax,0x18(%rbx)
  4026ee:	c7 43 20 73 65 72 76 	movl   $0x76726573,0x20(%rbx)
  4026f5:	66 c7 43 24 65 72    	movw   $0x7265,0x24(%rbx)
  4026fb:	c6 43 26 00          	movb   $0x0,0x26(%rbx)
  4026ff:	89 ef                	mov    %ebp,%edi
  402701:	e8 2a e6 ff ff       	callq  400d30 <close@plt>
  402706:	b8 ff ff ff ff       	mov    $0xffffffff,%eax
  40270b:	e9 72 05 00 00       	jmpq   402c82 <submitr+0x746>
  402710:	48 c7 c6 ff ff ff ff 	mov    $0xffffffffffffffff,%rsi
  402717:	b8 00 00 00 00       	mov    $0x0,%eax
  40271c:	48 89 f1             	mov    %rsi,%rcx
  40271f:	4c 89 ef             	mov    %r13,%rdi
  402722:	f2 ae                	repnz scas %es:(%rdi),%al
  402724:	48 f7 d1             	not    %rcx
  402727:	48 89 ca             	mov    %rcx,%rdx
  40272a:	48 89 f1             	mov    %rsi,%rcx
  40272d:	4c 89 ff             	mov    %r15,%rdi
  402730:	f2 ae                	repnz scas %es:(%rdi),%al
  402732:	48 f7 d1             	not    %rcx
  402735:	49 89 c8             	mov    %rcx,%r8
  402738:	48 89 f1             	mov    %rsi,%rcx
  40273b:	4c 89 f7             	mov    %r14,%rdi
  40273e:	f2 ae                	repnz scas %es:(%rdi),%al
  402740:	48 f7 d1             	not    %rcx
  402743:	4d 8d 44 08 fe       	lea    -0x2(%r8,%rcx,1),%r8
  402748:	48 89 f1             	mov    %rsi,%rcx
  40274b:	48 8b 7c 24 08       	mov    0x8(%rsp),%rdi
  402750:	f2 ae                	repnz scas %es:(%rdi),%al
  402752:	48 89 c8             	mov    %rcx,%rax
  402755:	48 f7 d0             	not    %rax
  402758:	49 8d 4c 00 ff       	lea    -0x1(%r8,%rax,1),%rcx
  40275d:	48 8d 44 52 fd       	lea    -0x3(%rdx,%rdx,2),%rax
  402762:	48 8d 84 01 80 00 00 	lea    0x80(%rcx,%rax,1),%rax
  402769:	00 
  40276a:	48 3d 00 20 00 00    	cmp    $0x2000,%rax
  402770:	76 72                	jbe    4027e4 <submitr+0x2a8>
  402772:	48 b8 45 72 72 6f 72 	movabs $0x52203a726f727245,%rax
  402779:	3a 20 52 
  40277c:	48 89 03             	mov    %rax,(%rbx)
  40277f:	48 b8 65 73 75 6c 74 	movabs $0x747320746c757365,%rax
  402786:	20 73 74 
  402789:	48 89 43 08          	mov    %rax,0x8(%rbx)
  40278d:	48 b8 72 69 6e 67 20 	movabs $0x6f6f7420676e6972,%rax
  402794:	74 6f 6f 
  402797:	48 89 43 10          	mov    %rax,0x10(%rbx)
  40279b:	48 b8 20 6c 61 72 67 	movabs $0x202e656772616c20,%rax
  4027a2:	65 2e 20 
  4027a5:	48 89 43 18          	mov    %rax,0x18(%rbx)
  4027a9:	48 b8 49 6e 63 72 65 	movabs $0x6573616572636e49,%rax
  4027b0:	61 73 65 
  4027b3:	48 89 43 20          	mov    %rax,0x20(%rbx)
  4027b7:	48 b8 20 53 55 42 4d 	movabs $0x5254494d42555320,%rax
  4027be:	49 54 52 
  4027c1:	48 89 43 28          	mov    %rax,0x28(%rbx)
  4027c5:	48 b8 5f 4d 41 58 42 	movabs $0x46554258414d5f,%rax
  4027cc:	55 46 00 
  4027cf:	48 89 43 30          	mov    %rax,0x30(%rbx)
  4027d3:	89 ef                	mov    %ebp,%edi
  4027d5:	e8 56 e5 ff ff       	callq  400d30 <close@plt>
  4027da:	b8 ff ff ff ff       	mov    $0xffffffff,%eax
  4027df:	e9 9e 04 00 00       	jmpq   402c82 <submitr+0x746>
  4027e4:	48 8d b4 24 40 40 00 	lea    0x4040(%rsp),%rsi
  4027eb:	00 
  4027ec:	b9 00 04 00 00       	mov    $0x400,%ecx
  4027f1:	b8 00 00 00 00       	mov    $0x0,%eax
  4027f6:	48 89 f7             	mov    %rsi,%rdi
  4027f9:	f3 48 ab             	rep stos %rax,%es:(%rdi)
  4027fc:	4c 89 ef             	mov    %r13,%rdi
  4027ff:	e8 2b fc ff ff       	callq  40242f <urlencode>
  402804:	85 c0                	test   %eax,%eax
  402806:	0f 89 8a 00 00 00    	jns    402896 <submitr+0x35a>
  40280c:	48 b8 45 72 72 6f 72 	movabs $0x52203a726f727245,%rax
  402813:	3a 20 52 
  402816:	48 89 03             	mov    %rax,(%rbx)
  402819:	48 b8 65 73 75 6c 74 	movabs $0x747320746c757365,%rax
  402820:	20 73 74 
  402823:	48 89 43 08          	mov    %rax,0x8(%rbx)
  402827:	48 b8 72 69 6e 67 20 	movabs $0x6e6f6320676e6972,%rax
  40282e:	63 6f 6e 
  402831:	48 89 43 10          	mov    %rax,0x10(%rbx)
  402835:	48 b8 74 61 69 6e 73 	movabs $0x6e6120736e696174,%rax
  40283c:	20 61 6e 
  40283f:	48 89 43 18          	mov    %rax,0x18(%rbx)
  402843:	48 b8 20 69 6c 6c 65 	movabs $0x6c6167656c6c6920,%rax
  40284a:	67 61 6c 
  40284d:	48 89 43 20          	mov    %rax,0x20(%rbx)
  402851:	48 b8 20 6f 72 20 75 	movabs $0x72706e7520726f20,%rax
  402858:	6e 70 72 
  40285b:	48 89 43 28          	mov    %rax,0x28(%rbx)
  40285f:	48 b8 69 6e 74 61 62 	movabs $0x20656c6261746e69,%rax
  402866:	6c 65 20 
  402869:	48 89 43 30          	mov    %rax,0x30(%rbx)
  40286d:	48 b8 63 68 61 72 61 	movabs $0x6574636172616863,%rax
  402874:	63 74 65 
  402877:	48 89 43 38          	mov    %rax,0x38(%rbx)
  40287b:	66 c7 43 40 72 2e    	movw   $0x2e72,0x40(%rbx)
  402881:	c6 43 42 00          	movb   $0x0,0x42(%rbx)
  402885:	89 ef                	mov    %ebp,%edi
  402887:	e8 a4 e4 ff ff       	callq  400d30 <close@plt>
  40288c:	b8 ff ff ff ff       	mov    $0xffffffff,%eax
  402891:	e9 ec 03 00 00       	jmpq   402c82 <submitr+0x746>
  402896:	4c 8d ac 24 40 20 00 	lea    0x2040(%rsp),%r13
  40289d:	00 
  40289e:	41 54                	push   %r12
  4028a0:	48 8d 84 24 48 40 00 	lea    0x4048(%rsp),%rax
  4028a7:	00 
  4028a8:	50                   	push   %rax
  4028a9:	4d 89 f9             	mov    %r15,%r9
  4028ac:	4d 89 f0             	mov    %r14,%r8
  4028af:	b9 88 37 40 00       	mov    $0x403788,%ecx
  4028b4:	ba 00 20 00 00       	mov    $0x2000,%edx
  4028b9:	be 01 00 00 00       	mov    $0x1,%esi
  4028be:	4c 89 ef             	mov    %r13,%rdi
  4028c1:	b8 00 00 00 00       	mov    $0x0,%eax
  4028c6:	e8 b5 e5 ff ff       	callq  400e80 <__sprintf_chk@plt>
  4028cb:	b8 00 00 00 00       	mov    $0x0,%eax
  4028d0:	48 c7 c1 ff ff ff ff 	mov    $0xffffffffffffffff,%rcx
  4028d7:	4c 89 ef             	mov    %r13,%rdi
  4028da:	f2 ae                	repnz scas %es:(%rdi),%al
  4028dc:	48 f7 d1             	not    %rcx
  4028df:	48 8d 51 ff          	lea    -0x1(%rcx),%rdx
  4028e3:	4c 89 ee             	mov    %r13,%rsi
  4028e6:	89 ef                	mov    %ebp,%edi
  4028e8:	e8 b1 f9 ff ff       	callq  40229e <rio_writen>
  4028ed:	48 83 c4 10          	add    $0x10,%rsp
  4028f1:	48 85 c0             	test   %rax,%rax
  4028f4:	79 6e                	jns    402964 <submitr+0x428>
  4028f6:	48 b8 45 72 72 6f 72 	movabs $0x43203a726f727245,%rax
  4028fd:	3a 20 43 
  402900:	48 89 03             	mov    %rax,(%rbx)
  402903:	48 b8 6c 69 65 6e 74 	movabs $0x6e7520746e65696c,%rax
  40290a:	20 75 6e 
  40290d:	48 89 43 08          	mov    %rax,0x8(%rbx)
  402911:	48 b8 61 62 6c 65 20 	movabs $0x206f7420656c6261,%rax
  402918:	74 6f 20 
  40291b:	48 89 43 10          	mov    %rax,0x10(%rbx)
  40291f:	48 b8 77 72 69 74 65 	movabs $0x6f74206574697277,%rax
  402926:	20 74 6f 
  402929:	48 89 43 18          	mov    %rax,0x18(%rbx)
  40292d:	48 b8 20 74 68 65 20 	movabs $0x7365722065687420,%rax
  402934:	72 65 73 
  402937:	48 89 43 20          	mov    %rax,0x20(%rbx)
  40293b:	48 b8 75 6c 74 20 73 	movabs $0x7672657320746c75,%rax
  402942:	65 72 76 
  402945:	48 89 43 28          	mov    %rax,0x28(%rbx)
  402949:	66 c7 43 30 65 72    	movw   $0x7265,0x30(%rbx)
  40294f:	c6 43 32 00          	movb   $0x0,0x32(%rbx)
  402953:	89 ef                	mov    %ebp,%edi
  402955:	e8 d6 e3 ff ff       	callq  400d30 <close@plt>
  40295a:	b8 ff ff ff ff       	mov    $0xffffffff,%eax
  40295f:	e9 1e 03 00 00       	jmpq   402c82 <submitr+0x746>
  402964:	89 ee                	mov    %ebp,%esi
  402966:	48 8d 7c 24 30       	lea    0x30(%rsp),%rdi
  40296b:	e8 ee f8 ff ff       	callq  40225e <rio_readinitb>
  402970:	ba 00 20 00 00       	mov    $0x2000,%edx
  402975:	48 8d b4 24 40 20 00 	lea    0x2040(%rsp),%rsi
  40297c:	00 
  40297d:	48 8d 7c 24 30       	lea    0x30(%rsp),%rdi
  402982:	e8 fe f9 ff ff       	callq  402385 <rio_readlineb>
  402987:	48 85 c0             	test   %rax,%rax
  40298a:	7f 7d                	jg     402a09 <submitr+0x4cd>
  40298c:	48 b8 45 72 72 6f 72 	movabs $0x43203a726f727245,%rax
  402993:	3a 20 43 
  402996:	48 89 03             	mov    %rax,(%rbx)
  402999:	48 b8 6c 69 65 6e 74 	movabs $0x6e7520746e65696c,%rax
  4029a0:	20 75 6e 
  4029a3:	48 89 43 08          	mov    %rax,0x8(%rbx)
  4029a7:	48 b8 61 62 6c 65 20 	movabs $0x206f7420656c6261,%rax
  4029ae:	74 6f 20 
  4029b1:	48 89 43 10          	mov    %rax,0x10(%rbx)
  4029b5:	48 b8 72 65 61 64 20 	movabs $0x7269662064616572,%rax
  4029bc:	66 69 72 
  4029bf:	48 89 43 18          	mov    %rax,0x18(%rbx)
  4029c3:	48 b8 73 74 20 68 65 	movabs $0x6564616568207473,%rax
  4029ca:	61 64 65 
  4029cd:	48 89 43 20          	mov    %rax,0x20(%rbx)
  4029d1:	48 b8 72 20 66 72 6f 	movabs $0x72206d6f72662072,%rax
  4029d8:	6d 20 72 
  4029db:	48 89 43 28          	mov    %rax,0x28(%rbx)
  4029df:	48 b8 65 73 75 6c 74 	movabs $0x657320746c757365,%rax
  4029e6:	20 73 65 
  4029e9:	48 89 43 30          	mov    %rax,0x30(%rbx)
  4029ed:	c7 43 38 72 76 65 72 	movl   $0x72657672,0x38(%rbx)
  4029f4:	c6 43 3c 00          	movb   $0x0,0x3c(%rbx)
  4029f8:	89 ef                	mov    %ebp,%edi
  4029fa:	e8 31 e3 ff ff       	callq  400d30 <close@plt>
  4029ff:	b8 ff ff ff ff       	mov    $0xffffffff,%eax
  402a04:	e9 79 02 00 00       	jmpq   402c82 <submitr+0x746>
  402a09:	4c 8d 84 24 40 80 00 	lea    0x8040(%rsp),%r8
  402a10:	00 
  402a11:	48 8d 4c 24 1c       	lea    0x1c(%rsp),%rcx
  402a16:	48 8d 94 24 40 60 00 	lea    0x6040(%rsp),%rdx
  402a1d:	00 
  402a1e:	be ff 37 40 00       	mov    $0x4037ff,%esi
  402a23:	48 8d bc 24 40 20 00 	lea    0x2040(%rsp),%rdi
  402a2a:	00 
  402a2b:	b8 00 00 00 00       	mov    $0x0,%eax
  402a30:	e8 ab e3 ff ff       	callq  400de0 <__isoc99_sscanf@plt>
  402a35:	e9 95 00 00 00       	jmpq   402acf <submitr+0x593>
  402a3a:	ba 00 20 00 00       	mov    $0x2000,%edx
  402a3f:	48 8d b4 24 40 20 00 	lea    0x2040(%rsp),%rsi
  402a46:	00 
  402a47:	48 8d 7c 24 30       	lea    0x30(%rsp),%rdi
  402a4c:	e8 34 f9 ff ff       	callq  402385 <rio_readlineb>
  402a51:	48 85 c0             	test   %rax,%rax
  402a54:	7f 79                	jg     402acf <submitr+0x593>
  402a56:	48 b8 45 72 72 6f 72 	movabs $0x43203a726f727245,%rax
  402a5d:	3a 20 43 
  402a60:	48 89 03             	mov    %rax,(%rbx)
  402a63:	48 b8 6c 69 65 6e 74 	movabs $0x6e7520746e65696c,%rax
  402a6a:	20 75 6e 
  402a6d:	48 89 43 08          	mov    %rax,0x8(%rbx)
  402a71:	48 b8 61 62 6c 65 20 	movabs $0x206f7420656c6261,%rax
  402a78:	74 6f 20 
  402a7b:	48 89 43 10          	mov    %rax,0x10(%rbx)
  402a7f:	48 b8 72 65 61 64 20 	movabs $0x6165682064616572,%rax
  402a86:	68 65 61 
  402a89:	48 89 43 18          	mov    %rax,0x18(%rbx)
  402a8d:	48 b8 64 65 72 73 20 	movabs $0x6f72662073726564,%rax
  402a94:	66 72 6f 
  402a97:	48 89 43 20          	mov    %rax,0x20(%rbx)
  402a9b:	48 b8 6d 20 74 68 65 	movabs $0x657220656874206d,%rax
  402aa2:	20 72 65 
  402aa5:	48 89 43 28          	mov    %rax,0x28(%rbx)
  402aa9:	48 b8 73 75 6c 74 20 	movabs $0x72657320746c7573,%rax
  402ab0:	73 65 72 
  402ab3:	48 89 43 30          	mov    %rax,0x30(%rbx)
  402ab7:	c7 43 38 76 65 72 00 	movl   $0x726576,0x38(%rbx)
  402abe:	89 ef                	mov    %ebp,%edi
  402ac0:	e8 6b e2 ff ff       	callq  400d30 <close@plt>
  402ac5:	b8 ff ff ff ff       	mov    $0xffffffff,%eax
  402aca:	e9 b3 01 00 00       	jmpq   402c82 <submitr+0x746>
  402acf:	0f b6 94 24 40 20 00 	movzbl 0x2040(%rsp),%edx
  402ad6:	00 
  402ad7:	b8 0d 00 00 00       	mov    $0xd,%eax
  402adc:	29 d0                	sub    %edx,%eax
  402ade:	75 1b                	jne    402afb <submitr+0x5bf>
  402ae0:	0f b6 94 24 41 20 00 	movzbl 0x2041(%rsp),%edx
  402ae7:	00 
  402ae8:	b8 0a 00 00 00       	mov    $0xa,%eax
  402aed:	29 d0                	sub    %edx,%eax
  402aef:	75 0a                	jne    402afb <submitr+0x5bf>
  402af1:	0f b6 84 24 42 20 00 	movzbl 0x2042(%rsp),%eax
  402af8:	00 
  402af9:	f7 d8                	neg    %eax
  402afb:	85 c0                	test   %eax,%eax
  402afd:	0f 85 37 ff ff ff    	jne    402a3a <submitr+0x4fe>
  402b03:	ba 00 20 00 00       	mov    $0x2000,%edx
  402b08:	48 8d b4 24 40 20 00 	lea    0x2040(%rsp),%rsi
  402b0f:	00 
  402b10:	48 8d 7c 24 30       	lea    0x30(%rsp),%rdi
  402b15:	e8 6b f8 ff ff       	callq  402385 <rio_readlineb>
  402b1a:	48 85 c0             	test   %rax,%rax
  402b1d:	0f 8f 83 00 00 00    	jg     402ba6 <submitr+0x66a>
  402b23:	48 b8 45 72 72 6f 72 	movabs $0x43203a726f727245,%rax
  402b2a:	3a 20 43 
  402b2d:	48 89 03             	mov    %rax,(%rbx)
  402b30:	48 b8 6c 69 65 6e 74 	movabs $0x6e7520746e65696c,%rax
  402b37:	20 75 6e 
  402b3a:	48 89 43 08          	mov    %rax,0x8(%rbx)
  402b3e:	48 b8 61 62 6c 65 20 	movabs $0x206f7420656c6261,%rax
  402b45:	74 6f 20 
  402b48:	48 89 43 10          	mov    %rax,0x10(%rbx)
  402b4c:	48 b8 72 65 61 64 20 	movabs $0x6174732064616572,%rax
  402b53:	73 74 61 
  402b56:	48 89 43 18          	mov    %rax,0x18(%rbx)
  402b5a:	48 b8 74 75 73 20 6d 	movabs $0x7373656d20737574,%rax
  402b61:	65 73 73 
  402b64:	48 89 43 20          	mov    %rax,0x20(%rbx)
  402b68:	48 b8 61 67 65 20 66 	movabs $0x6d6f726620656761,%rax
  402b6f:	72 6f 6d 
  402b72:	48 89 43 28          	mov    %rax,0x28(%rbx)
  402b76:	48 b8 20 72 65 73 75 	movabs $0x20746c7573657220,%rax
  402b7d:	6c 74 20 
  402b80:	48 89 43 30          	mov    %rax,0x30(%rbx)
  402b84:	c7 43 38 73 65 72 76 	movl   $0x76726573,0x38(%rbx)
  402b8b:	66 c7 43 3c 65 72    	movw   $0x7265,0x3c(%rbx)
  402b91:	c6 43 3e 00          	movb   $0x0,0x3e(%rbx)
  402b95:	89 ef                	mov    %ebp,%edi
  402b97:	e8 94 e1 ff ff       	callq  400d30 <close@plt>
  402b9c:	b8 ff ff ff ff       	mov    $0xffffffff,%eax
  402ba1:	e9 dc 00 00 00       	jmpq   402c82 <submitr+0x746>
  402ba6:	44 8b 44 24 1c       	mov    0x1c(%rsp),%r8d
  402bab:	41 81 f8 c8 00 00 00 	cmp    $0xc8,%r8d
  402bb2:	74 37                	je     402beb <submitr+0x6af>
  402bb4:	4c 8d 8c 24 40 80 00 	lea    0x8040(%rsp),%r9
  402bbb:	00 
  402bbc:	b9 c8 37 40 00       	mov    $0x4037c8,%ecx
  402bc1:	48 c7 c2 ff ff ff ff 	mov    $0xffffffffffffffff,%rdx
  402bc8:	be 01 00 00 00       	mov    $0x1,%esi
  402bcd:	48 89 df             	mov    %rbx,%rdi
  402bd0:	b8 00 00 00 00       	mov    $0x0,%eax
  402bd5:	e8 a6 e2 ff ff       	callq  400e80 <__sprintf_chk@plt>
  402bda:	89 ef                	mov    %ebp,%edi
  402bdc:	e8 4f e1 ff ff       	callq  400d30 <close@plt>
  402be1:	b8 ff ff ff ff       	mov    $0xffffffff,%eax
  402be6:	e9 97 00 00 00       	jmpq   402c82 <submitr+0x746>
  402beb:	48 8d b4 24 40 20 00 	lea    0x2040(%rsp),%rsi
  402bf2:	00 
  402bf3:	48 89 df             	mov    %rbx,%rdi
  402bf6:	e8 c5 e0 ff ff       	callq  400cc0 <strcpy@plt>
  402bfb:	89 ef                	mov    %ebp,%edi
  402bfd:	e8 2e e1 ff ff       	callq  400d30 <close@plt>
  402c02:	0f b6 03             	movzbl (%rbx),%eax
  402c05:	ba 4f 00 00 00       	mov    $0x4f,%edx
  402c0a:	29 c2                	sub    %eax,%edx
  402c0c:	75 22                	jne    402c30 <submitr+0x6f4>
  402c0e:	0f b6 4b 01          	movzbl 0x1(%rbx),%ecx
  402c12:	b8 4b 00 00 00       	mov    $0x4b,%eax
  402c17:	29 c8                	sub    %ecx,%eax
  402c19:	75 17                	jne    402c32 <submitr+0x6f6>
  402c1b:	0f b6 4b 02          	movzbl 0x2(%rbx),%ecx
  402c1f:	b8 0a 00 00 00       	mov    $0xa,%eax
  402c24:	29 c8                	sub    %ecx,%eax
  402c26:	75 0a                	jne    402c32 <submitr+0x6f6>
  402c28:	0f b6 43 03          	movzbl 0x3(%rbx),%eax
  402c2c:	f7 d8                	neg    %eax
  402c2e:	eb 02                	jmp    402c32 <submitr+0x6f6>
  402c30:	89 d0                	mov    %edx,%eax
  402c32:	85 c0                	test   %eax,%eax
  402c34:	74 40                	je     402c76 <submitr+0x73a>
  402c36:	bf 10 38 40 00       	mov    $0x403810,%edi
  402c3b:	b9 05 00 00 00       	mov    $0x5,%ecx
  402c40:	48 89 de             	mov    %rbx,%rsi
  402c43:	f3 a6                	repz cmpsb %es:(%rdi),%ds:(%rsi)
  402c45:	0f 97 c0             	seta   %al
  402c48:	0f 92 c1             	setb   %cl
  402c4b:	29 c8                	sub    %ecx,%eax
  402c4d:	0f be c0             	movsbl %al,%eax
  402c50:	85 c0                	test   %eax,%eax
  402c52:	74 2e                	je     402c82 <submitr+0x746>
  402c54:	85 d2                	test   %edx,%edx
  402c56:	75 13                	jne    402c6b <submitr+0x72f>
  402c58:	0f b6 43 01          	movzbl 0x1(%rbx),%eax
  402c5c:	ba 4b 00 00 00       	mov    $0x4b,%edx
  402c61:	29 c2                	sub    %eax,%edx
  402c63:	75 06                	jne    402c6b <submitr+0x72f>
  402c65:	0f b6 53 02          	movzbl 0x2(%rbx),%edx
  402c69:	f7 da                	neg    %edx
  402c6b:	85 d2                	test   %edx,%edx
  402c6d:	75 0e                	jne    402c7d <submitr+0x741>
  402c6f:	b8 00 00 00 00       	mov    $0x0,%eax
  402c74:	eb 0c                	jmp    402c82 <submitr+0x746>
  402c76:	b8 00 00 00 00       	mov    $0x0,%eax
  402c7b:	eb 05                	jmp    402c82 <submitr+0x746>
  402c7d:	b8 ff ff ff ff       	mov    $0xffffffff,%eax
  402c82:	48 8b 9c 24 48 a0 00 	mov    0xa048(%rsp),%rbx
  402c89:	00 
  402c8a:	64 48 33 1c 25 28 00 	xor    %fs:0x28,%rbx
  402c91:	00 00 
  402c93:	74 05                	je     402c9a <submitr+0x75e>
  402c95:	e8 56 e0 ff ff       	callq  400cf0 <__stack_chk_fail@plt>
  402c9a:	48 81 c4 58 a0 00 00 	add    $0xa058,%rsp
  402ca1:	5b                   	pop    %rbx
  402ca2:	5d                   	pop    %rbp
  402ca3:	41 5c                	pop    %r12
  402ca5:	41 5d                	pop    %r13
  402ca7:	41 5e                	pop    %r14
  402ca9:	41 5f                	pop    %r15
  402cab:	c3                   	retq   

0000000000402cac <init_timeout>:
  402cac:	85 ff                	test   %edi,%edi
  402cae:	74 23                	je     402cd3 <init_timeout+0x27>
  402cb0:	53                   	push   %rbx
  402cb1:	89 fb                	mov    %edi,%ebx
  402cb3:	85 ff                	test   %edi,%edi
  402cb5:	79 05                	jns    402cbc <init_timeout+0x10>
  402cb7:	bb 00 00 00 00       	mov    $0x0,%ebx
  402cbc:	be 70 22 40 00       	mov    $0x402270,%esi
  402cc1:	bf 0e 00 00 00       	mov    $0xe,%edi
  402cc6:	e8 95 e0 ff ff       	callq  400d60 <signal@plt>
  402ccb:	89 df                	mov    %ebx,%edi
  402ccd:	e8 4e e0 ff ff       	callq  400d20 <alarm@plt>
  402cd2:	5b                   	pop    %rbx
  402cd3:	f3 c3                	repz retq 

0000000000402cd5 <init_driver>:
  402cd5:	55                   	push   %rbp
  402cd6:	53                   	push   %rbx
  402cd7:	48 83 ec 28          	sub    $0x28,%rsp
  402cdb:	48 89 fd             	mov    %rdi,%rbp
  402cde:	64 48 8b 04 25 28 00 	mov    %fs:0x28,%rax
  402ce5:	00 00 
  402ce7:	48 89 44 24 18       	mov    %rax,0x18(%rsp)
  402cec:	31 c0                	xor    %eax,%eax
  402cee:	be 01 00 00 00       	mov    $0x1,%esi
  402cf3:	bf 0d 00 00 00       	mov    $0xd,%edi
  402cf8:	e8 63 e0 ff ff       	callq  400d60 <signal@plt>
  402cfd:	be 01 00 00 00       	mov    $0x1,%esi
  402d02:	bf 1d 00 00 00       	mov    $0x1d,%edi
  402d07:	e8 54 e0 ff ff       	callq  400d60 <signal@plt>
  402d0c:	be 01 00 00 00       	mov    $0x1,%esi
  402d11:	bf 1d 00 00 00       	mov    $0x1d,%edi
  402d16:	e8 45 e0 ff ff       	callq  400d60 <signal@plt>
  402d1b:	ba 00 00 00 00       	mov    $0x0,%edx
  402d20:	be 01 00 00 00       	mov    $0x1,%esi
  402d25:	bf 02 00 00 00       	mov    $0x2,%edi
  402d2a:	e8 61 e1 ff ff       	callq  400e90 <socket@plt>
  402d2f:	85 c0                	test   %eax,%eax
  402d31:	79 4f                	jns    402d82 <init_driver+0xad>
  402d33:	48 b8 45 72 72 6f 72 	movabs $0x43203a726f727245,%rax
  402d3a:	3a 20 43 
  402d3d:	48 89 45 00          	mov    %rax,0x0(%rbp)
  402d41:	48 b8 6c 69 65 6e 74 	movabs $0x6e7520746e65696c,%rax
  402d48:	20 75 6e 
  402d4b:	48 89 45 08          	mov    %rax,0x8(%rbp)
  402d4f:	48 b8 61 62 6c 65 20 	movabs $0x206f7420656c6261,%rax
  402d56:	74 6f 20 
  402d59:	48 89 45 10          	mov    %rax,0x10(%rbp)
  402d5d:	48 b8 63 72 65 61 74 	movabs $0x7320657461657263,%rax
  402d64:	65 20 73 
  402d67:	48 89 45 18          	mov    %rax,0x18(%rbp)
  402d6b:	c7 45 20 6f 63 6b 65 	movl   $0x656b636f,0x20(%rbp)
  402d72:	66 c7 45 24 74 00    	movw   $0x74,0x24(%rbp)
  402d78:	b8 ff ff ff ff       	mov    $0xffffffff,%eax
  402d7d:	e9 2a 01 00 00       	jmpq   402eac <init_driver+0x1d7>
  402d82:	89 c3                	mov    %eax,%ebx
  402d84:	bf 15 38 40 00       	mov    $0x403815,%edi
  402d89:	e8 e2 df ff ff       	callq  400d70 <gethostbyname@plt>
  402d8e:	48 85 c0             	test   %rax,%rax
  402d91:	75 68                	jne    402dfb <init_driver+0x126>
  402d93:	48 b8 45 72 72 6f 72 	movabs $0x44203a726f727245,%rax
  402d9a:	3a 20 44 
  402d9d:	48 89 45 00          	mov    %rax,0x0(%rbp)
  402da1:	48 b8 4e 53 20 69 73 	movabs $0x6e7520736920534e,%rax
  402da8:	20 75 6e 
  402dab:	48 89 45 08          	mov    %rax,0x8(%rbp)
  402daf:	48 b8 61 62 6c 65 20 	movabs $0x206f7420656c6261,%rax
  402db6:	74 6f 20 
  402db9:	48 89 45 10          	mov    %rax,0x10(%rbp)
  402dbd:	48 b8 72 65 73 6f 6c 	movabs $0x2065766c6f736572,%rax
  402dc4:	76 65 20 
  402dc7:	48 89 45 18          	mov    %rax,0x18(%rbp)
  402dcb:	48 b8 73 65 72 76 65 	movabs $0x6120726576726573,%rax
  402dd2:	72 20 61 
  402dd5:	48 89 45 20          	mov    %rax,0x20(%rbp)
  402dd9:	c7 45 28 64 64 72 65 	movl   $0x65726464,0x28(%rbp)
  402de0:	66 c7 45 2c 73 73    	movw   $0x7373,0x2c(%rbp)
  402de6:	c6 45 2e 00          	movb   $0x0,0x2e(%rbp)
  402dea:	89 df                	mov    %ebx,%edi
  402dec:	e8 3f df ff ff       	callq  400d30 <close@plt>
  402df1:	b8 ff ff ff ff       	mov    $0xffffffff,%eax
  402df6:	e9 b1 00 00 00       	jmpq   402eac <init_driver+0x1d7>
  402dfb:	48 c7 04 24 00 00 00 	movq   $0x0,(%rsp)
  402e02:	00 
  402e03:	48 c7 44 24 08 00 00 	movq   $0x0,0x8(%rsp)
  402e0a:	00 00 
  402e0c:	66 c7 04 24 02 00    	movw   $0x2,(%rsp)
  402e12:	48 63 50 14          	movslq 0x14(%rax),%rdx
  402e16:	48 8b 40 18          	mov    0x18(%rax),%rax
  402e1a:	48 8b 30             	mov    (%rax),%rsi
  402e1d:	48 8d 7c 24 04       	lea    0x4(%rsp),%rdi
  402e22:	b9 0c 00 00 00       	mov    $0xc,%ecx
  402e27:	e8 54 df ff ff       	callq  400d80 <__memmove_chk@plt>
  402e2c:	66 c7 44 24 02 3c 9a 	movw   $0x9a3c,0x2(%rsp)
  402e33:	ba 10 00 00 00       	mov    $0x10,%edx
  402e38:	48 89 e6             	mov    %rsp,%rsi
  402e3b:	89 df                	mov    %ebx,%edi
  402e3d:	e8 1e e0 ff ff       	callq  400e60 <connect@plt>
  402e42:	85 c0                	test   %eax,%eax
  402e44:	79 50                	jns    402e96 <init_driver+0x1c1>
  402e46:	48 b8 45 72 72 6f 72 	movabs $0x55203a726f727245,%rax
  402e4d:	3a 20 55 
  402e50:	48 89 45 00          	mov    %rax,0x0(%rbp)
  402e54:	48 b8 6e 61 62 6c 65 	movabs $0x6f7420656c62616e,%rax
  402e5b:	20 74 6f 
  402e5e:	48 89 45 08          	mov    %rax,0x8(%rbp)
  402e62:	48 b8 20 63 6f 6e 6e 	movabs $0x7463656e6e6f6320,%rax
  402e69:	65 63 74 
  402e6c:	48 89 45 10          	mov    %rax,0x10(%rbp)
  402e70:	48 b8 20 74 6f 20 73 	movabs $0x76726573206f7420,%rax
  402e77:	65 72 76 
  402e7a:	48 89 45 18          	mov    %rax,0x18(%rbp)
  402e7e:	66 c7 45 20 65 72    	movw   $0x7265,0x20(%rbp)
  402e84:	c6 45 22 00          	movb   $0x0,0x22(%rbp)
  402e88:	89 df                	mov    %ebx,%edi
  402e8a:	e8 a1 de ff ff       	callq  400d30 <close@plt>
  402e8f:	b8 ff ff ff ff       	mov    $0xffffffff,%eax
  402e94:	eb 16                	jmp    402eac <init_driver+0x1d7>
  402e96:	89 df                	mov    %ebx,%edi
  402e98:	e8 93 de ff ff       	callq  400d30 <close@plt>
  402e9d:	66 c7 45 00 4f 4b    	movw   $0x4b4f,0x0(%rbp)
  402ea3:	c6 45 02 00          	movb   $0x0,0x2(%rbp)
  402ea7:	b8 00 00 00 00       	mov    $0x0,%eax
  402eac:	48 8b 4c 24 18       	mov    0x18(%rsp),%rcx
  402eb1:	64 48 33 0c 25 28 00 	xor    %fs:0x28,%rcx
  402eb8:	00 00 
  402eba:	74 05                	je     402ec1 <init_driver+0x1ec>
  402ebc:	e8 2f de ff ff       	callq  400cf0 <__stack_chk_fail@plt>
  402ec1:	48 83 c4 28          	add    $0x28,%rsp
  402ec5:	5b                   	pop    %rbx
  402ec6:	5d                   	pop    %rbp
  402ec7:	c3                   	retq   

0000000000402ec8 <driver_post>:
  402ec8:	53                   	push   %rbx
  402ec9:	4c 89 cb             	mov    %r9,%rbx
  402ecc:	45 85 c0             	test   %r8d,%r8d
  402ecf:	74 27                	je     402ef8 <driver_post+0x30>
  402ed1:	48 89 ca             	mov    %rcx,%rdx
  402ed4:	be 2d 38 40 00       	mov    $0x40382d,%esi
  402ed9:	bf 01 00 00 00       	mov    $0x1,%edi
  402ede:	b8 00 00 00 00       	mov    $0x0,%eax
  402ee3:	e8 18 df ff ff       	callq  400e00 <__printf_chk@plt>
  402ee8:	66 c7 03 4f 4b       	movw   $0x4b4f,(%rbx)
  402eed:	c6 43 02 00          	movb   $0x0,0x2(%rbx)
  402ef1:	b8 00 00 00 00       	mov    $0x0,%eax
  402ef6:	eb 3f                	jmp    402f37 <driver_post+0x6f>
  402ef8:	48 85 ff             	test   %rdi,%rdi
  402efb:	74 2c                	je     402f29 <driver_post+0x61>
  402efd:	80 3f 00             	cmpb   $0x0,(%rdi)
  402f00:	74 27                	je     402f29 <driver_post+0x61>
  402f02:	48 83 ec 08          	sub    $0x8,%rsp
  402f06:	41 51                	push   %r9
  402f08:	49 89 c9             	mov    %rcx,%r9
  402f0b:	49 89 d0             	mov    %rdx,%r8
  402f0e:	48 89 f9             	mov    %rdi,%rcx
  402f11:	48 89 f2             	mov    %rsi,%rdx
  402f14:	be 9a 3c 00 00       	mov    $0x3c9a,%esi
  402f19:	bf 15 38 40 00       	mov    $0x403815,%edi
  402f1e:	e8 19 f6 ff ff       	callq  40253c <submitr>
  402f23:	48 83 c4 10          	add    $0x10,%rsp
  402f27:	eb 0e                	jmp    402f37 <driver_post+0x6f>
  402f29:	66 c7 03 4f 4b       	movw   $0x4b4f,(%rbx)
  402f2e:	c6 43 02 00          	movb   $0x0,0x2(%rbx)
  402f32:	b8 00 00 00 00       	mov    $0x0,%eax
  402f37:	5b                   	pop    %rbx
  402f38:	c3                   	retq   

0000000000402f39 <check>:
  402f39:	89 f8                	mov    %edi,%eax
  402f3b:	c1 e8 1c             	shr    $0x1c,%eax
  402f3e:	85 c0                	test   %eax,%eax
  402f40:	74 1d                	je     402f5f <check+0x26>
  402f42:	b9 00 00 00 00       	mov    $0x0,%ecx
  402f47:	eb 0b                	jmp    402f54 <check+0x1b>
  402f49:	89 f8                	mov    %edi,%eax
  402f4b:	d3 e8                	shr    %cl,%eax
  402f4d:	3c 0a                	cmp    $0xa,%al
  402f4f:	74 14                	je     402f65 <check+0x2c>
  402f51:	83 c1 08             	add    $0x8,%ecx
  402f54:	83 f9 1f             	cmp    $0x1f,%ecx
  402f57:	7e f0                	jle    402f49 <check+0x10>
  402f59:	b8 01 00 00 00       	mov    $0x1,%eax
  402f5e:	c3                   	retq   
  402f5f:	b8 00 00 00 00       	mov    $0x0,%eax
  402f64:	c3                   	retq   
  402f65:	b8 00 00 00 00       	mov    $0x0,%eax
  402f6a:	c3                   	retq   

0000000000402f6b <gencookie>:
  402f6b:	53                   	push   %rbx
  402f6c:	83 c7 01             	add    $0x1,%edi
  402f6f:	e8 2c dd ff ff       	callq  400ca0 <srandom@plt>
  402f74:	e8 47 de ff ff       	callq  400dc0 <random@plt>
  402f79:	89 c3                	mov    %eax,%ebx
  402f7b:	89 c7                	mov    %eax,%edi
  402f7d:	e8 b7 ff ff ff       	callq  402f39 <check>
  402f82:	85 c0                	test   %eax,%eax
  402f84:	74 ee                	je     402f74 <gencookie+0x9>
  402f86:	89 d8                	mov    %ebx,%eax
  402f88:	5b                   	pop    %rbx
  402f89:	c3                   	retq   
  402f8a:	66 0f 1f 44 00 00    	nopw   0x0(%rax,%rax,1)

0000000000402f90 <__libc_csu_init>:
  402f90:	41 57                	push   %r15
  402f92:	41 56                	push   %r14
  402f94:	41 89 ff             	mov    %edi,%r15d
  402f97:	41 55                	push   %r13
  402f99:	41 54                	push   %r12
  402f9b:	4c 8d 25 6e 1e 20 00 	lea    0x201e6e(%rip),%r12        # 604e10 <__frame_dummy_init_array_entry>
  402fa2:	55                   	push   %rbp
  402fa3:	48 8d 2d 6e 1e 20 00 	lea    0x201e6e(%rip),%rbp        # 604e18 <__init_array_end>
  402faa:	53                   	push   %rbx
  402fab:	49 89 f6             	mov    %rsi,%r14
  402fae:	49 89 d5             	mov    %rdx,%r13
  402fb1:	4c 29 e5             	sub    %r12,%rbp
  402fb4:	48 83 ec 08          	sub    $0x8,%rsp
  402fb8:	48 c1 fd 03          	sar    $0x3,%rbp
  402fbc:	e8 87 dc ff ff       	callq  400c48 <_init>
  402fc1:	48 85 ed             	test   %rbp,%rbp
  402fc4:	74 20                	je     402fe6 <__libc_csu_init+0x56>
  402fc6:	31 db                	xor    %ebx,%ebx
  402fc8:	0f 1f 84 00 00 00 00 	nopl   0x0(%rax,%rax,1)
  402fcf:	00 
  402fd0:	4c 89 ea             	mov    %r13,%rdx
  402fd3:	4c 89 f6             	mov    %r14,%rsi
  402fd6:	44 89 ff             	mov    %r15d,%edi
  402fd9:	41 ff 14 dc          	callq  *(%r12,%rbx,8)
  402fdd:	48 83 c3 01          	add    $0x1,%rbx
  402fe1:	48 39 eb             	cmp    %rbp,%rbx
  402fe4:	75 ea                	jne    402fd0 <__libc_csu_init+0x40>
  402fe6:	48 83 c4 08          	add    $0x8,%rsp
  402fea:	5b                   	pop    %rbx
  402feb:	5d                   	pop    %rbp
  402fec:	41 5c                	pop    %r12
  402fee:	41 5d                	pop    %r13
  402ff0:	41 5e                	pop    %r14
  402ff2:	41 5f                	pop    %r15
  402ff4:	c3                   	retq   
  402ff5:	90                   	nop
  402ff6:	66 2e 0f 1f 84 00 00 	nopw   %cs:0x0(%rax,%rax,1)
  402ffd:	00 00 00 

0000000000403000 <__libc_csu_fini>:
  403000:	f3 c3                	repz retq 

Disassembly of section .fini:

0000000000403004 <_fini>:
  403004:	48 83 ec 08          	sub    $0x8,%rsp
  403008:	48 83 c4 08          	add    $0x8,%rsp
  40300c:	c3                   	retq 
